LX51 LINKER/LOCATER V4.66.97.0                                                          04/04/2022  17:40:24  PAGE 1


LX51 LINKER/LOCATER V4.66.97.0, INVOKED BY:
C:\KEIL_V5\C51\BIN\LX51.EXE STARTUP.obj, MAIN.obj TO 942


CPU MODE:     8051 MODE
MEMORY MODEL: COMPACT


INPUT MODULES INCLUDED:
  STARTUP.obj (?C_STARTUP)
         COMMENT TYPE 0: AX51 V3.15.3.0
  MAIN.obj (MAIN)
         COMMENT TYPE 0: C51 V9.60.0.0
  C:\KEIL_V5\C51\LIB\C51C.LIB (?C_INIT)
         COMMENT TYPE 1: A51 / ASM51 Assembler
  C:\KEIL_V5\C51\LIB\C51C.LIB (?C?UIDIV)
         COMMENT TYPE 1: A51 / ASM51 Assembler


ACTIVE MEMORY CLASSES OF MODULE:  942 (?C_STARTUP)

BASE        START       END         USED      MEMORY CLASS
==========================================================
C:000000H   C:000000H   C:00FFFFH   001289H   CODE
I:000000H   I:000000H   I:0000FFH   000001H   IDATA
X:000000H   X:000000H   X:0000FFH   00005EH   PDATA
I:000020H.0 I:000020H.0 I:00002FH.7 000007H.1 BIT
I:000000H   I:000000H   I:00007FH   000008H   DATA


MEMORY MAP OF MODULE:  942 (?C_STARTUP)


START     STOP      LENGTH    ALIGN  RELOC    MEMORY CLASS   SEGMENT NAME
=========================================================================

* * * * * * * * * * *   D A T A   M E M O R Y   * * * * * * * * * * * * *
000000H   000007H   000008H   ---    AT..     DATA           "REG BANK 0"
000008H.0 00001FH.7 000018H.0 ---    ---      **GAP**
000020H.0 000027H.0 000007H.1 BIT    UNIT     BIT            ?BI?MAIN
000027H.1 000027H   000000H.7 ---    ---      **GAP**
000028H   000028H   000001H   BYTE   UNIT     IDATA          ?STACK

* * * * * * * * * * *   C O D E   M E M O R Y   * * * * * * * * * * * * *
000000H   000002H   000003H   ---    OFFS..   CODE           ?CO?STARTUP?3
000003H   000027H   000025H   BYTE   UNIT     CODE           ?PR?PWM_DEAD_TIME_VALUE?MAIN
000028H   00002EH   000007H   BYTE   UNIT     CODE           ?PR?DELAY3US?MAIN
00002FH   000035H   000007H   BYTE   UNIT     CODE           ?C_INITSEG
000036H   00003AH   000005H   ---    ---      **GAP**
00003BH   00003DH   000003H   BYTE   OFFS..   CODE           ?MAIN?0003B
00003EH   000055H   000018H   BYTE   UNIT     CODE           ?PR?TIMER3_ISR?MAIN
000056H   000082H   00002DH   ---    ---      **GAP**
000083H   000085H   000003H   BYTE   OFFS..   CODE           ?MAIN?00083
000086H   00042FH   0003AAH   BYTE   UNIT     CODE           ?PR?ADC_DSP?MAIN
000430H   000575H   000146H   BYTE   UNIT     CODE           ?PR?INIT?MAIN
000576H   000697H   000122H   BYTE   UNIT     CODE           ?PR?MOVECTRL?MAIN
000698H   000719H   000082H   BYTE   UNIT     CODE           ?PR?ZIDONGGUANGJI?MAIN
00071AH   00076EH   000055H   BYTE   UNIT     CODE           ?C?LIB_CODE
00076FH   0007BDH   00004FH   BYTE   UNIT     CODE           ?PR?MAIN?MAIN
0007BEH   0007FFH   000042H   ---    ---      **GAP**
000800H   00121BH   000A1CH   BYTE   UNIT     CODE           ?PR?TIME_DSP?MAIN
00121CH   001262H   000047H   BYTE   UNIT     CODE           ?PR?INIT_ISR?MAIN
001263H   00182DH   0005CBH   ---    ---      **GAP**
00182EH   0018C7H   00009AH   BYTE   UNIT     CODE           ?C_C51STARTUP

* * * * * * * * * * *  X D A T A   M E M O R Y  * * * * * * * * * * * * *
LX51 LINKER/LOCATER V4.66.97.0                                                        04/04/2022  17:40:24  PAGE 2


000000H   00005DH   00005EH   BYTE   INPAGE   PDATA          ?PD?MAIN



OVERLAY MAP OF MODULE:   942 (?C_STARTUP)


FUNCTION/MODULE                BIT_GROUP   DATA_GROUP 
--> CALLED FUNCTION/MODULE    START  STOP  START  STOP
======================================================
?C_C51STARTUP                 ----- -----  ----- -----
  +--> MAIN/MAIN
  +--> ?C_INITSEG

MAIN/MAIN                     ----- -----  ----- -----
  +--> INIT/MAIN
  +--> ZIDONGGUANGJI/MAIN
  +--> TIME_DSP/MAIN
  +--> MOVECTRL/MAIN
  +--> ADC_DSP/MAIN

INIT/MAIN                     ----- -----  ----- -----
  +--> PWM_DEAD_TIME_VALUE/MAIN

PWM_DEAD_TIME_VALUE/MAIN      ----- -----  ----- -----

ZIDONGGUANGJI/MAIN            ----- -----  ----- -----

TIME_DSP/MAIN                 ----- -----  ----- -----
  +--> MOVECTRL/MAIN

MOVECTRL/MAIN                 ----- -----  ----- -----

ADC_DSP/MAIN                  ----- -----  ----- -----

?C_INITSEG                    ----- -----  ----- -----

*** NEW ROOT ****************

TIMER3_ISR/MAIN               ----- -----  ----- -----

*** NEW ROOT ****************

INIT_ISR/MAIN                 ----- -----  ----- -----
  +--> DELAY3US/MAIN

DELAY3US/MAIN                 ----- -----  ----- -----



PUBLIC SYMBOLS OF MODULE:  942 (?C_STARTUP)


      VALUE       CLASS    TYPE      PUBLIC SYMBOL NAME
      =================================================
      00000000H   NUMBER   ---       ?C?CODESEG
      0100071AH   CODE     ---       ?C?UIDIV
      00000000H   NUMBER   ---       ?C?XDATASEG
      01001883H   CODE     ---       ?C_START
      01000000H   CODE     NEAR LAB  ?C_STARTUP
      00000026H.4 BIT      BIT       A_DET_FL
      0200004BH   PDATA    BYTE      A_P_CT
      0200000FH   PDATA    BYTE      A_P_CT1
      02000010H   PDATA    BYTE      A_P_CT2
      02000012H   PDATA    BYTE      A_P_CT3
LX51 LINKER/LOCATER V4.66.97.0                                                        04/04/2022  17:40:24  PAGE 3


      02000013H   PDATA    BYTE      A_P_CT4
      02000015H   PDATA    BYTE      A_P_CT5
*SFR* 000000C0H.2 DATA     BIT       AA
*SFR* 000000D0H.6 DATA     BIT       AC
*SFR* 000000E0H   DATA     BYTE      ACC
      02000053H   PDATA    BYTE      AD_CH
      01000086H   CODE     ---       ADC_DSP
*SFR* 000000E8H   DATA     BYTE      ADCCON0
*SFR* 000000E1H   DATA     BYTE      ADCCON1
*SFR* 000000E2H   DATA     BYTE      ADCCON2
*SFR* 000000E3H   DATA     BYTE      ADCDLY
*SFR* 000000E8H.7 DATA     BIT       ADCF
*SFR* 000000E8H.0 DATA     BIT       ADCHS0
*SFR* 000000E8H.1 DATA     BIT       ADCHS1
*SFR* 000000E8H.2 DATA     BIT       ADCHS2
*SFR* 000000E8H.3 DATA     BIT       ADCHS3
*SFR* 000000CFH   DATA     BYTE      ADCMPH
*SFR* 000000CEH   DATA     BYTE      ADCMPL
*SFR* 000000C3H   DATA     BYTE      ADCRH
*SFR* 000000C2H   DATA     BYTE      ADCRL
*SFR* 000000E8H.6 DATA     BIT       ADCS
*SFR* 000000F6H   DATA     BYTE      AINDIDS
*SFR* 000000A2H   DATA     BYTE      AUXR1
*SFR* 000000F0H   DATA     BYTE      B
      00000020H.0 BIT      BIT       BACK_FL
      02000046H   PDATA    BYTE      BackOFFTime
      0200000EH   PDATA    BYTE      BeginMoveBackTM
      02000024H   PDATA    BYTE      BeginMoveFrontTM
      00000023H.7 BIT      BIT       BIT_TMP
*SFR* 000000A3H   DATA     BYTE      BODCON0
*SFR* 000000ABH   DATA     BYTE      BODCON1
*SFR* 000000E5H   DATA     BYTE      C0H
*SFR* 000000E4H   DATA     BYTE      C0L
*SFR* 000000E7H   DATA     BYTE      C1H
*SFR* 000000E6H   DATA     BYTE      C1L
*SFR* 000000EEH   DATA     BYTE      C2H
*SFR* 000000EDH   DATA     BYTE      C2L
*SFR* 00000092H   DATA     BYTE      CAPCON0
*SFR* 00000093H   DATA     BYTE      CAPCON1
*SFR* 00000094H   DATA     BYTE      CAPCON2
*SFR* 000000F1H   DATA     BYTE      CAPCON3
*SFR* 000000F2H   DATA     BYTE      CAPCON4
      00000020H.2 BIT      BIT       ceshi_zhengchang_FL
      00000022H.6 BIT      BIT       CHANGE
      00000022H.1 BIT      BIT       CHANGE_FL
      0200001FH   PDATA    BYTE      CHANGE_Off_TM
*SFR* 0000009FH   DATA     BYTE      CHPCON
*SFR* 0000008EH   DATA     BYTE      CKCON
*SFR* 00000095H   DATA     BYTE      CKDIV
*SFR* 00000097H   DATA     BYTE      CKEN
*SFR* 00000096H   DATA     BYTE      CKSWT
*SFR* 000000D8H.4 DATA     BIT       CLRPWM
*SFR* 000000C8H.0 DATA     BIT       CM_RL2
      0200000BH   PDATA    BYTE      Count1S
      02000057H   PDATA    BYTE      Count2_5MS
      02000030H   PDATA    BYTE      count_500US_CT
      0200002DH   PDATA    BYTE      Cur_ResultNew
      02000032H   PDATA    BYTE      CurDanWei_AD
*SFR* 000000D0H.7 DATA     BIT       CY
      00000024H.0 BIT      BIT       dang_23fl
      0200002CH   PDATA    BYTE      DanWei
      02000017H   PDATA    BYTE      DanWei_AD
      0200000CH   PDATA    BYTE      DanWei_PWM
      01000028H   CODE     ---       Delay3us
      02000025H   PDATA    BYTE      DelayOffTM
LX51 LINKER/LOCATER V4.66.97.0                                                        04/04/2022  17:40:24  PAGE 4


*SFR* 00000083H   DATA     BYTE      DPH
*SFR* 00000082H   DATA     BYTE      DPL
      00000020H.6 BIT      BIT       duanlu_sw_fl
      00000025H.1 BIT      BIT       duZ_close_fl
*SFR* 000000A8H.7 DATA     BIT       EA
*SFR* 000000A8H.6 DATA     BIT       EADC
*SFR* 000000A8H.5 DATA     BIT       EBOD
*SFR* 0000009BH   DATA     BYTE      EIE
*SFR* 0000009CH   DATA     BYTE      EIE1
*SFR* 000000EFH   DATA     BYTE      EIP
*SFR* 000000FEH   DATA     BYTE      EIP1
*SFR* 000000F7H   DATA     BYTE      EIPH
*SFR* 000000FFH   DATA     BYTE      EIPH1
      0200001DH   PDATA    BYTE      ELE12_BIG_ct
      00000025H.0 BIT      BIT       ELE12_BIG_FL
      02000051H   PDATA    BYTE      ELE12_BIG_TM
      02000035H   PDATA    BYTE      ELE12_Small_ct
      02000020H   PDATA    BYTE      ELE13_BIG_ct
      00000025H.2 BIT      BIT       ELE13_BIG_FL
      02000052H   PDATA    BYTE      ELE13_BIG_TM
      02000039H   PDATA    BYTE      ELE13_Small_ct
      00000023H.0 BIT      BIT       ELE20_BIG_ERR_FL
      0200004EH   PDATA    BYTE      ELE20_BIG_TM
      00000023H.3 BIT      BIT       ELE25_BIG_ERR_FL
      02000023H   PDATA    BYTE      ELE28_BIG_ct
      00000023H.6 BIT      BIT       ELE28_BIG_ERR_FL
      00000025H.7 BIT      BIT       ELE28_BIG_FL
      0200005AH   PDATA    BYTE      ELE28_BIG_TM
      0200003EH   PDATA    BYTE      ELE28_Small_ct
      0200001CH   PDATA    BYTE      ELE30_BIG_ct
      00000023H.1 BIT      BIT       ELE30_BIG_ERR_FL
      00000024H.7 BIT      BIT       ELE30_BIG_FL
      02000050H   PDATA    BYTE      ELE30_BIG_TM
      02000034H   PDATA    BYTE      ELE30_Small_ct
      00000023H.4 BIT      BIT       ELE35_BIG_ERR_FL
      02000021H   PDATA    BYTE      ELE40_BIG_ct
      00000025H.3 BIT      BIT       ELE40_BIG_FL
      0200003AH   PDATA    BYTE      ELE40_Small_ct
      02000022H   PDATA    BYTE      ELE50_BIG_ct
      00000025H.4 BIT      BIT       ELE50_BIG_FL
      0200003BH   PDATA    BYTE      ELE50_Small_ct
      00000025H.5 BIT      BIT       ELE60_BIG_FL
      02000054H   PDATA    BYTE      ELE60_BIG_TM
      00000026H.6 BIT      BIT       ELE_BIG_FL
      02000005H   PDATA    BYTE      ELE_BIG_SET1
      02000006H   PDATA    BYTE      ELE_BIG_SET2
      02000007H   PDATA    BYTE      ELE_BIG_SET3
      02000009H   PDATA    BYTE      ELE_BIG_TM
      00000021H.5 BIT      BIT       ELE_ERR_FL
      0200002FH   PDATA    BYTE      ELE_InterruptDISP_TM
      0200003FH   PDATA    BYTE      ELE_Wait_5s
      00000024H.5 BIT      BIT       ELEAP_BIG_ERR_FL
      00000020H.4 BIT      BIT       ELEAP_BIG_ERR_FL1
      00000020H.5 BIT      BIT       ELEAP_BIG_ERR_FL2
      00000020H.7 BIT      BIT       ELEAP_BIG_ERR_FL3
      00000021H.2 BIT      BIT       ELEAP_BIG_ERR_FL4
      00000021H.4 BIT      BIT       ELEAP_BIG_ERR_FL5
*SFR* 000000A8H.4 DATA     BIT       ES
*SFR* 000000A8H.1 DATA     BIT       ET0
*SFR* 000000A8H.3 DATA     BIT       ET1
*SFR* 000000E8H.4 DATA     BIT       ETGSEL0
*SFR* 000000E8H.5 DATA     BIT       ETGSEL1
*SFR* 000000A8H.0 DATA     BIT       EX0
*SFR* 000000A8H.2 DATA     BIT       EX1
*SFR* 000000D0H.5 DATA     BIT       F0
LX51 LINKER/LOCATER V4.66.97.0                                                        04/04/2022  17:40:24  PAGE 5


*SFR* 000000D7H   DATA     BYTE      FBD
*SFR* 00000098H.7 DATA     BIT       FE
*SFR* 000000F8H.7 DATA     BIT       FE_1
      00000026H.0 BIT      BIT       FLAG_IO_PWM
      00000026H.1 BIT      BIT       FLAG_NMS
      00000026H.3 BIT      BIT       FRONT_BACK_FL
      00000027H.0 BIT      BIT       FRONT_FL
      0200005CH   PDATA    BYTE      FrontOFFTime
      00000026H.2 BIT      BIT       G_S_FL
      02000049H   PDATA    BYTE      G_S_FL_CT
      02000059H   PDATA    BYTE      G_S_HighCT
      02000028H   PDATA    BYTE      G_S_HighCT_fanjiao
      00000021H.6 BIT      BIT       G_S_L2H_FL
      00000026H.5 BIT      BIT       G_S_Old
      00000021H.3 BIT      BIT       G_S_old_FL
      02000001H   PDATA    BYTE      G_S_same
      02000045H   PDATA    BYTE      G_S_State
      0200004AH   PDATA    BYTE      guangji_1mintimer
      0200000DH   PDATA    BYTE      guangji_1stimer
      02000002H   PDATA    BYTE      guanji_timer
      0200004CH   PDATA    WORD      Hall_Add
      0200001EH   PDATA    BYTE      Hall_Add_ct
      02000036H   PDATA    WORD      HallLowCT
      00000024H.3 BIT      BIT       HIGH_LOWS_PEED
      00000024H.1 BIT      BIT       HIGH_LOWS_PEED_FL
      00000026H.7 BIT      BIT       HIGH_LOWS_PEED_FLold
*SFR* 000000C1H   DATA     BYTE      I2ADDR
*SFR* 000000C0H.6 DATA     BIT       I2CEN
*SFR* 000000BEH   DATA     BYTE      I2CLK
*SFR* 000000C0H   DATA     BYTE      I2CON
*SFR* 000000C0H.0 DATA     BIT       I2CPX
*SFR* 000000BCH   DATA     BYTE      I2DAT
*SFR* 000000BDH   DATA     BYTE      I2STAT
*SFR* 000000BFH   DATA     BYTE      I2TOC
*SFR* 000000A7H   DATA     BYTE      IAPAH
*SFR* 000000A6H   DATA     BYTE      IAPAL
*SFR* 000000AFH   DATA     BYTE      IAPCN
*SFR* 000000AEH   DATA     BYTE      IAPFD
*SFR* 000000A4H   DATA     BYTE      IAPTRG
*SFR* 000000A5H   DATA     BYTE      IAPUEN
*SFR* 000000A8H   DATA     BYTE      IE
*SFR* 00000088H.1 DATA     BIT       IE0
*SFR* 00000088H.3 DATA     BIT       IE1
      01000430H   CODE     ---       init
      0100121CH   CODE     ---       init_ISR
*SFR* 000000B8H   DATA     BYTE      IP
*SFR* 000000B7H   DATA     BYTE      IPH
*SFR* 00000088H.0 DATA     BIT       IT0
*SFR* 00000088H.2 DATA     BIT       IT1
      02000048H   PDATA    BYTE      jinxianliuTM
      00000021H.1 BIT      BIT       LA
      02000033H   PDATA    BYTE      LED_CT
      0200000AH   PDATA    BYTE      LED_pwm
      02000040H   PDATA    BYTE      LED_TM
*SFR* 000000D8H.6 DATA     BIT       LOAD
      0100076FH   CODE     ---       main
*SFR* 00000080H.1 DATA     BIT       MISO
      0200005BH   PDATA    BYTE      MOS_Err
*SFR* 00000080H.0 DATA     BIT       MOSI
      01000576H   CODE     ---       MoveCtrl
      02000018H   PDATA    WORD      NO_Connet_ct
      00000024H.6 BIT      BIT       NO_Connet_FL
      00000021H.0 BIT      BIT       NO_Connet_FL1
*SFR* 000000D0H.2 DATA     BIT       OV
*SFR* 000000D0H.0 DATA     BIT       P
LX51 LINKER/LOCATER V4.66.97.0                                                        04/04/2022  17:40:24  PAGE 6


*SFR* 00000080H   DATA     BYTE      P0
*SFR* 00000080H.0 DATA     BIT       P00
*SFR* 00000080H.1 DATA     BIT       P01
*SFR* 00000080H.2 DATA     BIT       P02
*SFR* 00000080H.3 DATA     BIT       P03
*SFR* 00000080H.4 DATA     BIT       P04
*SFR* 00000080H.5 DATA     BIT       P05
*SFR* 00000080H.6 DATA     BIT       P06
*SFR* 00000080H.7 DATA     BIT       P07
*SFR* 000000B1H   DATA     BYTE      P0M1
*SFR* 000000B2H   DATA     BYTE      P0M2
*SFR* 000000B1H   DATA     BYTE      P0S
*SFR* 000000B2H   DATA     BYTE      P0SR
*SFR* 00000090H   DATA     BYTE      P1
*SFR* 00000090H.0 DATA     BIT       P10
*SFR* 00000090H.1 DATA     BIT       P11
*SFR* 00000090H.2 DATA     BIT       P12
*SFR* 00000090H.3 DATA     BIT       P13
*SFR* 00000090H.4 DATA     BIT       P14
*SFR* 00000090H.5 DATA     BIT       P15
*SFR* 00000090H.6 DATA     BIT       P16
*SFR* 00000090H.7 DATA     BIT       P17
*SFR* 000000B3H   DATA     BYTE      P1M1
*SFR* 000000B4H   DATA     BYTE      P1M2
*SFR* 000000B3H   DATA     BYTE      P1S
*SFR* 000000B4H   DATA     BYTE      P1SR
*SFR* 000000A0H   DATA     BYTE      P2
*SFR* 000000A0H.0 DATA     BIT       P20
*SFR* 000000B5H   DATA     BYTE      P2S
*SFR* 000000B0H   DATA     BYTE      P3
*SFR* 000000B0H.0 DATA     BIT       P30
*SFR* 000000ACH   DATA     BYTE      P3M1
*SFR* 000000ADH   DATA     BYTE      P3M2
*SFR* 000000ACH   DATA     BYTE      P3S
*SFR* 000000ADH   DATA     BYTE      P3SR
*SFR* 000000B8H.6 DATA     BIT       PADC
*SFR* 000000B8H.5 DATA     BIT       PBOD
*SFR* 00000087H   DATA     BYTE      PCON
*SFR* 000000FAH   DATA     BYTE      PDTCNT
*SFR* 000000F9H   DATA     BYTE      PDTEN
*SFR* 000000E9H   DATA     BYTE      PICON
*SFR* 000000ECH   DATA     BYTE      PIF
*SFR* 000000EAH   DATA     BYTE      PINEN
*SFR* 000000DEH   DATA     BYTE      PIOCON0
*SFR* 000000C6H   DATA     BYTE      PIOCON1
*SFR* 000000EBH   DATA     BYTE      PIPEN
*SFR* 000000FCH   DATA     BYTE      PMD
*SFR* 000000FBH   DATA     BYTE      PMEN
*SFR* 000000D6H   DATA     BYTE      PNP
      00000020H.1 BIT      BIT       POWER_ON_IO
      02000038H   PDATA    BYTE      POWER_on_TM
*SFR* 000000A0H   DATA     BYTE      PPAGE_SFR
*SFR* 000000B8H.4 DATA     BIT       PS
*SFR* 000000D0H   DATA     BYTE      PSW
*SFR* 000000B8H.1 DATA     BIT       PT0
*SFR* 000000B8H.3 DATA     BIT       PT1
      02000058H   PDATA    BYTE      PWM
*SFR* 000000D2H   DATA     BYTE      PWM0H
*SFR* 000000DAH   DATA     BYTE      PWM0L
*SFR* 000000D3H   DATA     BYTE      PWM1H
*SFR* 000000DBH   DATA     BYTE      PWM1L
*SFR* 000000D4H   DATA     BYTE      PWM2H
*SFR* 000000DCH   DATA     BYTE      PWM2L
*SFR* 000000D5H   DATA     BYTE      PWM3H
*SFR* 000000DDH   DATA     BYTE      PWM3L
LX51 LINKER/LOCATER V4.66.97.0                                                        04/04/2022  17:40:24  PAGE 7


*SFR* 000000C4H   DATA     BYTE      PWM4H
*SFR* 000000CCH   DATA     BYTE      PWM4L
*SFR* 000000C5H   DATA     BYTE      PWM5H
*SFR* 000000CDH   DATA     BYTE      PWM5L
      01000003H   CODE     ---       PWM_DEAD_TIME_VALUE
      0200005DH   PDATA    BYTE      PWM_Ele_Set
      02000003H   PDATA    BYTE      PWM_HallSet
      02000000H   PDATA    BYTE      PWM_HUAN
      02000031H   PDATA    BYTE      PWM_MAX_Set
      00000020H.3 BIT      BIT       PWM_xianzhi_fl
      02000047H   PDATA    BYTE      PWMADDTM
*SFR* 000000D8H   DATA     BYTE      PWMCON0
*SFR* 000000DFH   DATA     BYTE      PWMCON1
*SFR* 000000D8H.5 DATA     BIT       PWMF
*SFR* 000000B7H   DATA     BYTE      PWMINTC
      0200002BH   PDATA    BYTE      PWMold
*SFR* 000000D1H   DATA     BYTE      PWMPH
*SFR* 000000D9H   DATA     BYTE      PWMPL
*SFR* 000000D8H.7 DATA     BIT       PWMRUN
*SFR* 000000B8H.0 DATA     BIT       PX0
*SFR* 000000B8H.2 DATA     BIT       PX1
      00000024H.4 BIT      BIT       qudiao_shache_FL
*SFR* 00000098H.2 DATA     BIT       RB8
*SFR* 000000F8H.2 DATA     BIT       RB8_1
*SFR* 000000CBH   DATA     BYTE      RCMP2H
*SFR* 000000CAH   DATA     BYTE      RCMP2L
*SFR* 00000084H   DATA     BYTE      RCTRIM0
*SFR* 00000085H   DATA     BYTE      RCTRIM1
      0200003DH   PDATA    BYTE      RELYDelayTM
*SFR* 00000098H.4 DATA     BIT       REN
*SFR* 000000F8H.4 DATA     BIT       REN_1
*SFR* 000000C6H   DATA     BYTE      RH3
*SFR* 00000098H.0 DATA     BIT       RI
*SFR* 000000F8H.0 DATA     BIT       RI_1
*SFR* 000000C5H   DATA     BYTE      RL3
*SFR* 000000D0H.3 DATA     BIT       RS0
*SFR* 000000D0H.4 DATA     BIT       RS1
*SFR* 00000086H   DATA     BYTE      RWK
*SFR* 00000080H.7 DATA     BIT       RXD
*SFR* 00000080H.2 DATA     BIT       RXD_1
*SFR* 000000A9H   DATA     BYTE      SADDR
*SFR* 000000BBH   DATA     BYTE      SADDR_1
*SFR* 000000B9H   DATA     BYTE      SADEN
*SFR* 000000BAH   DATA     BYTE      SADEN_1
*SFR* 00000099H   DATA     BYTE      SBUF
*SFR* 0000009AH   DATA     BYTE      SBUF_1
*SFR* 00000090H.3 DATA     BIT       SCL
*SFR* 00000098H   DATA     BYTE      SCON
*SFR* 000000F8H   DATA     BYTE      SCON_1
*SFR* 00000090H.4 DATA     BIT       SDA
*SFR* 00000091H   DATA     BYTE      SFRS
      00000025H.6 BIT      BIT       shache_4ms
      0200003CH   PDATA    BYTE      ShaCheTM
      00000024H.2 BIT      BIT       shangdian_yunxun_FL
*SFR* 000000C0H.3 DATA     BIT       SI
*SFR* 00000098H.7 DATA     BIT       SM0
*SFR* 000000F8H.7 DATA     BIT       SM0_1
*SFR* 00000098H.6 DATA     BIT       SM1
*SFR* 000000F8H.6 DATA     BIT       SM1_1
*SFR* 00000098H.5 DATA     BIT       SM2
*SFR* 000000F8H.5 DATA     BIT       SM2_1
*SFR* 00000081H   DATA     BYTE      SP
*SFR* 000000F3H   DATA     BYTE      SPCR
*SFR* 000000F3H   DATA     BYTE      SPCR2
*SFR* 000000F5H   DATA     BYTE      SPDR
LX51 LINKER/LOCATER V4.66.97.0                                                        04/04/2022  17:40:24  PAGE 8


*SFR* 000000F4H   DATA     BYTE      SPSR
*SFR* 000000C0H.5 DATA     BIT       STA
*SFR* 00000080H.4 DATA     BIT       STADC
*SFR* 000000C0H.4 DATA     BIT       STO
      00000022H.0 BIT      BIT       Stop_FL
      00000022H.7 BIT      BIT       Stop_Old
      02000026H   PDATA    WORD      Stop_same
      00000022H.2 BIT      BIT       SW_FL
      0200004FH   PDATA    BYTE      sw_timer
      02000011H   PDATA    BYTE      SW_yanshi
*SFR* 000000C8H   DATA     BYTE      T2CON
*SFR* 000000C9H   DATA     BYTE      T2MOD
*SFR* 000000C4H   DATA     BYTE      T3CON
*SFR* 000000C7H   DATA     BYTE      TA
*SFR* 00000098H.3 DATA     BIT       TB8
*SFR* 000000F8H.3 DATA     BIT       TB8_1
*SFR* 00000088H   DATA     BYTE      TCON
*SFR* 00000088H.5 DATA     BIT       TF0
*SFR* 00000088H.7 DATA     BIT       TF1
*SFR* 000000C8H.7 DATA     BIT       TF2
*SFR* 0000008CH   DATA     BYTE      TH0
*SFR* 0000008DH   DATA     BYTE      TH1
*SFR* 000000CDH   DATA     BYTE      TH2
*SFR* 00000098H.1 DATA     BIT       TI
*SFR* 000000F8H.1 DATA     BIT       TI_1
      02000008H   PDATA    BYTE      TIME_20MS_CT
      02000004H   PDATA    BYTE      time_500ms
      01000800H   CODE     ---       time_dsp
      0100003EH   CODE     ---       Timer3_ISR
*SFR* 0000008AH   DATA     BYTE      TL0
*SFR* 0000008BH   DATA     BYTE      TL1
*SFR* 000000CCH   DATA     BYTE      TL2
*SFR* 00000089H   DATA     BYTE      TMOD
*SFR* 00000088H.4 DATA     BIT       TR0
*SFR* 00000088H.6 DATA     BIT       TR1
*SFR* 000000C8H.2 DATA     BIT       TR2
      00000022H.5 BIT      BIT       turn_zero_fl
      00000021H.7 BIT      BIT       TurnHighSpeed_FL
      00000022H.4 BIT      BIT       TurnHighSpeed_FL_New
*SFR* 00000080H.6 DATA     BIT       TXD
*SFR* 00000090H.6 DATA     BIT       TXD_1
      02000043H   PDATA    WORD      vol_add
      0200002AH   PDATA    BYTE      vol_addct
      02000041H   PDATA    WORD      volHand_add
      02000029H   PDATA    BYTE      volHand_addct
      0200002EH   PDATA    BYTE      Voltage_AD
      0200001AH   PDATA    BYTE      VoltageLowCT
      00000022H.3 BIT      BIT       VoltageLowFL
      0200001BH   PDATA    BYTE      VoltageLowWait
*SFR* 000000AAH   DATA     BYTE      WDCON
*SFR* 0000008FH   DATA     BYTE      WKCON
      02000014H   PDATA    BYTE      xiajiang_2dan_timer
      02000016H   PDATA    BYTE      xiajiang_3dan_timer
      02000055H   PDATA    WORD      xianliu65_same
      00000023H.5 BIT      BIT       xianliu_fl
      00000023H.2 BIT      BIT       yunxun_FL
      01000698H   CODE     ---       zidongguangji



SYMBOL TABLE OF MODULE:  942 (?C_STARTUP)

      VALUE       REP       CLASS    TYPE      SYMBOL NAME
      ====================================================
      ---         MODULE    ---      ---       ?C_STARTUP
LX51 LINKER/LOCATER V4.66.97.0                                                        04/04/2022  17:40:24  PAGE 9


      01000000H   PUBLIC    CODE     NEAR LAB  ?C_STARTUP
      000000E0H   SFRSYM    DATA     BYTE      ACC
      000000F0H   SFRSYM    DATA     BYTE      B
      00000083H   SFRSYM    DATA     BYTE      DPH
      00000082H   SFRSYM    DATA     BYTE      DPL
      000000A0H   SFRSYM    DATA     BYTE      PPAGE_SFR
      00000081H   SFRSYM    DATA     BYTE      SP
      00000000H   SYMBOL    NUMBER   ---       IBPSTACK
      00000100H   SYMBOL    NUMBER   ---       IBPSTACKTOP
      00000080H   SYMBOL    NUMBER   ---       IDATALEN
      01001831H   SYMBOL    CODE     NEAR LAB  IDATALOOP
      00000000H   SYMBOL    NUMBER   ---       PBPSTACK
      00010000H   SYMBOL    NUMBER   ---       PBPSTACKTOP
      00000000H   SYMBOL    NUMBER   ---       PDATALEN
      00000000H   SYMBOL    NUMBER   ---       PDATASTART
      00000000H   SYMBOL    NUMBER   ---       PPAGE
      00000000H   SYMBOL    NUMBER   ---       PPAGEENABLE
      0100182EH   SYMBOL    CODE     NEAR LAB  STARTUP1
      00000000H   SYMBOL    NUMBER   ---       XBPSTACK
      00010000H   SYMBOL    NUMBER   ---       XBPSTACKTOP
      000002FFH   SYMBOL    NUMBER   ---       XDATALEN
      0100183CH   SYMBOL    CODE     NEAR LAB  XDATALOOP
      00000000H   SYMBOL    NUMBER   ---       XDATASTART

      01000000H   BLOCK     CODE     NEAR LAB  LVL=0
      01000000H   LINE      CODE     ---       #92
      ---         BLOCKEND  ---      ---       LVL=0

      0100182EH   BLOCK     CODE     NEAR LAB  LVL=0
      0100182EH   LINE      CODE     ---       #99
      01001830H   LINE      CODE     ---       #100
      01001831H   LINE      CODE     ---       #101
      01001832H   LINE      CODE     ---       #102
      01001834H   LINE      CODE     ---       #106
      01001837H   LINE      CODE     ---       #107
      01001839H   LINE      CODE     ---       #109
      0100183BH   LINE      CODE     ---       #113
      0100183CH   LINE      CODE     ---       #114
      0100183DH   LINE      CODE     ---       #115
      0100183EH   LINE      CODE     ---       #116
      01001840H   LINE      CODE     ---       #117
      01001842H   LINE      CODE     ---       #151
      01001845H   LINE      CODE     ---       #155
      ---         BLOCKEND  ---      ---       LVL=0

      ---         MODULE    ---      ---       MAIN
      00000027H.0 PUBLIC    BIT      BIT       FRONT_FL
      00000026H.7 PUBLIC    BIT      BIT       HIGH_LOWS_PEED_FLold
      00000026H.6 PUBLIC    BIT      BIT       ELE_BIG_FL
      0200005DH   PUBLIC    PDATA    BYTE      PWM_Ele_Set
      00000026H.5 PUBLIC    BIT      BIT       G_S_Old
      0200005CH   PUBLIC    PDATA    BYTE      FrontOFFTime
      0200005BH   PUBLIC    PDATA    BYTE      MOS_Err
      0200005AH   PUBLIC    PDATA    BYTE      ELE28_BIG_TM
      02000059H   PUBLIC    PDATA    BYTE      G_S_HighCT
      02000058H   PUBLIC    PDATA    BYTE      PWM
      02000057H   PUBLIC    PDATA    BYTE      Count2_5MS
      02000055H   PUBLIC    PDATA    WORD      xianliu65_same
      02000054H   PUBLIC    PDATA    BYTE      ELE60_BIG_TM
      00000026H.4 PUBLIC    BIT      BIT       A_DET_FL
      02000053H   PUBLIC    PDATA    BYTE      AD_CH
      02000052H   PUBLIC    PDATA    BYTE      ELE13_BIG_TM
      00000026H.3 PUBLIC    BIT      BIT       FRONT_BACK_FL
      02000051H   PUBLIC    PDATA    BYTE      ELE12_BIG_TM
      02000050H   PUBLIC    PDATA    BYTE      ELE30_BIG_TM
LX51 LINKER/LOCATER V4.66.97.0                                                        04/04/2022  17:40:24  PAGE 10


      0200004FH   PUBLIC    PDATA    BYTE      sw_timer
      0200004EH   PUBLIC    PDATA    BYTE      ELE20_BIG_TM
      0200004CH   PUBLIC    PDATA    WORD      Hall_Add
      00000026H.2 PUBLIC    BIT      BIT       G_S_FL
      00000026H.1 PUBLIC    BIT      BIT       FLAG_NMS
      00000026H.0 PUBLIC    BIT      BIT       FLAG_IO_PWM
      0200004BH   PUBLIC    PDATA    BYTE      A_P_CT
      00000025H.7 PUBLIC    BIT      BIT       ELE28_BIG_FL
      0200004AH   PUBLIC    PDATA    BYTE      guangji_1mintimer
      00000025H.6 PUBLIC    BIT      BIT       shache_4ms
      02000049H   PUBLIC    PDATA    BYTE      G_S_FL_CT
      02000048H   PUBLIC    PDATA    BYTE      jinxianliuTM
      00000025H.5 PUBLIC    BIT      BIT       ELE60_BIG_FL
      00000025H.4 PUBLIC    BIT      BIT       ELE50_BIG_FL
      00000025H.3 PUBLIC    BIT      BIT       ELE40_BIG_FL
      00000025H.2 PUBLIC    BIT      BIT       ELE13_BIG_FL
      02000047H   PUBLIC    PDATA    BYTE      PWMADDTM
      02000046H   PUBLIC    PDATA    BYTE      BackOFFTime
      00000025H.1 PUBLIC    BIT      BIT       duZ_close_fl
      00000025H.0 PUBLIC    BIT      BIT       ELE12_BIG_FL
      00000024H.7 PUBLIC    BIT      BIT       ELE30_BIG_FL
      02000045H   PUBLIC    PDATA    BYTE      G_S_State
      02000043H   PUBLIC    PDATA    WORD      vol_add
      00000024H.6 PUBLIC    BIT      BIT       NO_Connet_FL
      02000041H   PUBLIC    PDATA    WORD      volHand_add
      00000024H.5 PUBLIC    BIT      BIT       ELEAP_BIG_ERR_FL
      02000040H   PUBLIC    PDATA    BYTE      LED_TM
      0200003FH   PUBLIC    PDATA    BYTE      ELE_Wait_5s
      0200003EH   PUBLIC    PDATA    BYTE      ELE28_Small_ct
      0200003DH   PUBLIC    PDATA    BYTE      RELYDelayTM
      0200003CH   PUBLIC    PDATA    BYTE      ShaCheTM
      0200003BH   PUBLIC    PDATA    BYTE      ELE50_Small_ct
      0200003AH   PUBLIC    PDATA    BYTE      ELE40_Small_ct
      02000039H   PUBLIC    PDATA    BYTE      ELE13_Small_ct
      02000038H   PUBLIC    PDATA    BYTE      POWER_on_TM
      02000036H   PUBLIC    PDATA    WORD      HallLowCT
      02000035H   PUBLIC    PDATA    BYTE      ELE12_Small_ct
      02000034H   PUBLIC    PDATA    BYTE      ELE30_Small_ct
      02000033H   PUBLIC    PDATA    BYTE      LED_CT
      02000032H   PUBLIC    PDATA    BYTE      CurDanWei_AD
      02000031H   PUBLIC    PDATA    BYTE      PWM_MAX_Set
      00000024H.4 PUBLIC    BIT      BIT       qudiao_shache_FL
      00000024H.3 PUBLIC    BIT      BIT       HIGH_LOWS_PEED
      02000030H   PUBLIC    PDATA    BYTE      count_500US_CT
      00000024H.2 PUBLIC    BIT      BIT       shangdian_yunxun_FL
      0200002FH   PUBLIC    PDATA    BYTE      ELE_InterruptDISP_TM
      0200002EH   PUBLIC    PDATA    BYTE      Voltage_AD
      0200002DH   PUBLIC    PDATA    BYTE      Cur_ResultNew
      0200002CH   PUBLIC    PDATA    BYTE      DanWei
      00000024H.1 PUBLIC    BIT      BIT       HIGH_LOWS_PEED_FL
      0200002BH   PUBLIC    PDATA    BYTE      PWMold
      0200002AH   PUBLIC    PDATA    BYTE      vol_addct
      00000024H.0 PUBLIC    BIT      BIT       dang_23fl
      02000029H   PUBLIC    PDATA    BYTE      volHand_addct
      00000023H.7 PUBLIC    BIT      BIT       BIT_TMP
      00000023H.6 PUBLIC    BIT      BIT       ELE28_BIG_ERR_FL
      02000028H   PUBLIC    PDATA    BYTE      G_S_HighCT_fanjiao
      00000023H.5 PUBLIC    BIT      BIT       xianliu_fl
      02000026H   PUBLIC    PDATA    WORD      Stop_same
      02000025H   PUBLIC    PDATA    BYTE      DelayOffTM
      02000024H   PUBLIC    PDATA    BYTE      BeginMoveFrontTM
      00000023H.4 PUBLIC    BIT      BIT       ELE35_BIG_ERR_FL
      00000023H.3 PUBLIC    BIT      BIT       ELE25_BIG_ERR_FL
      00000023H.2 PUBLIC    BIT      BIT       yunxun_FL
      02000023H   PUBLIC    PDATA    BYTE      ELE28_BIG_ct
LX51 LINKER/LOCATER V4.66.97.0                                                        04/04/2022  17:40:24  PAGE 11


      00000023H.1 PUBLIC    BIT      BIT       ELE30_BIG_ERR_FL
      00000023H.0 PUBLIC    BIT      BIT       ELE20_BIG_ERR_FL
      00000022H.7 PUBLIC    BIT      BIT       Stop_Old
      02000022H   PUBLIC    PDATA    BYTE      ELE50_BIG_ct
      00000022H.6 PUBLIC    BIT      BIT       CHANGE
      02000021H   PUBLIC    PDATA    BYTE      ELE40_BIG_ct
      02000020H   PUBLIC    PDATA    BYTE      ELE13_BIG_ct
      0200001FH   PUBLIC    PDATA    BYTE      CHANGE_Off_TM
      0200001EH   PUBLIC    PDATA    BYTE      Hall_Add_ct
      0200001DH   PUBLIC    PDATA    BYTE      ELE12_BIG_ct
      0200001CH   PUBLIC    PDATA    BYTE      ELE30_BIG_ct
      0200001BH   PUBLIC    PDATA    BYTE      VoltageLowWait
      0200001AH   PUBLIC    PDATA    BYTE      VoltageLowCT
      00000022H.5 PUBLIC    BIT      BIT       turn_zero_fl
      00000022H.4 PUBLIC    BIT      BIT       TurnHighSpeed_FL_New
      02000018H   PUBLIC    PDATA    WORD      NO_Connet_ct
      02000017H   PUBLIC    PDATA    BYTE      DanWei_AD
      00000022H.3 PUBLIC    BIT      BIT       VoltageLowFL
      02000016H   PUBLIC    PDATA    BYTE      xiajiang_3dan_timer
      02000015H   PUBLIC    PDATA    BYTE      A_P_CT5
      00000022H.2 PUBLIC    BIT      BIT       SW_FL
      02000014H   PUBLIC    PDATA    BYTE      xiajiang_2dan_timer
      02000013H   PUBLIC    PDATA    BYTE      A_P_CT4
      02000012H   PUBLIC    PDATA    BYTE      A_P_CT3
      00000022H.1 PUBLIC    BIT      BIT       CHANGE_FL
      00000022H.0 PUBLIC    BIT      BIT       Stop_FL
      02000011H   PUBLIC    PDATA    BYTE      SW_yanshi
      02000010H   PUBLIC    PDATA    BYTE      A_P_CT2
      0200000FH   PUBLIC    PDATA    BYTE      A_P_CT1
      0200000EH   PUBLIC    PDATA    BYTE      BeginMoveBackTM
      00000021H.7 PUBLIC    BIT      BIT       TurnHighSpeed_FL
      00000021H.6 PUBLIC    BIT      BIT       G_S_L2H_FL
      00000021H.5 PUBLIC    BIT      BIT       ELE_ERR_FL
      0200000DH   PUBLIC    PDATA    BYTE      guangji_1stimer
      0200000CH   PUBLIC    PDATA    BYTE      DanWei_PWM
      0200000BH   PUBLIC    PDATA    BYTE      Count1S
      00000021H.4 PUBLIC    BIT      BIT       ELEAP_BIG_ERR_FL5
      00000021H.3 PUBLIC    BIT      BIT       G_S_old_FL
      00000021H.2 PUBLIC    BIT      BIT       ELEAP_BIG_ERR_FL4
      00000021H.1 PUBLIC    BIT      BIT       LA
      00000021H.0 PUBLIC    BIT      BIT       NO_Connet_FL1
      00000020H.7 PUBLIC    BIT      BIT       ELEAP_BIG_ERR_FL3
      0200000AH   PUBLIC    PDATA    BYTE      LED_pwm
      02000009H   PUBLIC    PDATA    BYTE      ELE_BIG_TM
      02000008H   PUBLIC    PDATA    BYTE      TIME_20MS_CT
      00000020H.6 PUBLIC    BIT      BIT       duanlu_sw_fl
      00000020H.5 PUBLIC    BIT      BIT       ELEAP_BIG_ERR_FL2
      02000007H   PUBLIC    PDATA    BYTE      ELE_BIG_SET3
      00000020H.4 PUBLIC    BIT      BIT       ELEAP_BIG_ERR_FL1
      02000006H   PUBLIC    PDATA    BYTE      ELE_BIG_SET2
      02000005H   PUBLIC    PDATA    BYTE      ELE_BIG_SET1
      02000004H   PUBLIC    PDATA    BYTE      time_500ms
      00000020H.3 PUBLIC    BIT      BIT       PWM_xianzhi_fl
      00000020H.2 PUBLIC    BIT      BIT       ceshi_zhengchang_FL
      02000003H   PUBLIC    PDATA    BYTE      PWM_HallSet
      02000002H   PUBLIC    PDATA    BYTE      guanji_timer
      00000020H.1 PUBLIC    BIT      BIT       POWER_ON_IO
      00000020H.0 PUBLIC    BIT      BIT       BACK_FL
      02000001H   PUBLIC    PDATA    BYTE      G_S_same
      02000000H   PUBLIC    PDATA    BYTE      PWM_HUAN
      0100121CH   PUBLIC    CODE     ---       init_ISR
      0100076FH   PUBLIC    CODE     ---       main
      01000698H   PUBLIC    CODE     ---       zidongguangji
      01000086H   PUBLIC    CODE     ---       ADC_DSP
      01000800H   PUBLIC    CODE     ---       time_dsp
LX51 LINKER/LOCATER V4.66.97.0                                                        04/04/2022  17:40:24  PAGE 12


      01000576H   PUBLIC    CODE     ---       MoveCtrl
      0100003EH   PUBLIC    CODE     ---       Timer3_ISR
      01000430H   PUBLIC    CODE     ---       init
      01000003H   PUBLIC    CODE     ---       PWM_DEAD_TIME_VALUE
      01000028H   PUBLIC    CODE     ---       Delay3us
      000000F6H   SFRSYM    DATA     BYTE      AINDIDS
      000000B1H   SFRSYM    DATA     BYTE      P0M1
      00000080H.2 SFRSYM    DATA     BIT       RXD_1
      000000B3H   SFRSYM    DATA     BYTE      P1M1
      000000B2H   SFRSYM    DATA     BYTE      P0M2
      00000080H   SFRSYM    DATA     BYTE      P0
      000000BBH   SFRSYM    DATA     BYTE      SADDR_1
      000000B4H   SFRSYM    DATA     BYTE      P1M2
      00000090H   SFRSYM    DATA     BYTE      P1
      00000090H.6 SFRSYM    DATA     BIT       TXD_1
      000000C0H.2 SFRSYM    DATA     BIT       AA
      000000ACH   SFRSYM    DATA     BYTE      P3M1
      000000A0H   SFRSYM    DATA     BYTE      P2
      000000B0H   SFRSYM    DATA     BYTE      P3
      000000ADH   SFRSYM    DATA     BYTE      P3M2
      000000D0H.6 SFRSYM    DATA     BIT       AC
      0000008FH   SFRSYM    DATA     BYTE      WKCON
      00000084H   SFRSYM    DATA     BYTE      RCTRIM0
      0000009CH   SFRSYM    DATA     BYTE      EIE1
      00000085H   SFRSYM    DATA     BYTE      RCTRIM1
      000000A8H.7 SFRSYM    DATA     BIT       EA
      000000D8H   SFRSYM    DATA     BYTE      PWMCON0
      000000DFH   SFRSYM    DATA     BYTE      PWMCON1
      00000098H.7 SFRSYM    DATA     BIT       FE
      000000A8H.6 SFRSYM    DATA     BIT       EADC
      000000D1H   SFRSYM    DATA     BYTE      PWMPH
      000000A8H   SFRSYM    DATA     BYTE      IE
      00000096H   SFRSYM    DATA     BYTE      CKSWT
      000000E8H.7 SFRSYM    DATA     BIT       ADCF
      000000FEH   SFRSYM    DATA     BYTE      EIP1
      000000D9H   SFRSYM    DATA     BYTE      PWMPL
      000000E8H.0 SFRSYM    DATA     BIT       ADCHS0
      000000C7H   SFRSYM    DATA     BYTE      TA
      000000E8H.1 SFRSYM    DATA     BIT       ADCHS1
      000000E8H.2 SFRSYM    DATA     BIT       ADCHS2
      000000A8H.4 SFRSYM    DATA     BIT       ES
      000000E8H.3 SFRSYM    DATA     BIT       ADCHS3
      000000C1H   SFRSYM    DATA     BYTE      I2ADDR
      000000B8H.6 SFRSYM    DATA     BIT       PADC
      000000B8H   SFRSYM    DATA     BYTE      IP
      00000098H.0 SFRSYM    DATA     BIT       RI
      000000A8H.5 SFRSYM    DATA     BIT       EBOD
      000000C0H.3 SFRSYM    DATA     BIT       SI
      000000D0H.7 SFRSYM    DATA     BIT       CY
      000000E8H.6 SFRSYM    DATA     BIT       ADCS
      000000F8H.7 SFRSYM    DATA     BIT       FE_1
      00000098H.1 SFRSYM    DATA     BIT       TI
      000000D8H.6 SFRSYM    DATA     BIT       LOAD
      00000097H   SFRSYM    DATA     BYTE      CKEN
      000000B8H.4 SFRSYM    DATA     BIT       PS
      00000081H   SFRSYM    DATA     BYTE      SP
      000000D0H.2 SFRSYM    DATA     BIT       OV
      000000B7H   SFRSYM    DATA     BYTE      PWMINTC
      000000B8H.5 SFRSYM    DATA     BIT       PBOD
      000000B2H   SFRSYM    DATA     BYTE      P0SR
      000000F7H   SFRSYM    DATA     BYTE      EIPH
      000000B4H   SFRSYM    DATA     BYTE      P1SR
      000000ADH   SFRSYM    DATA     BYTE      P3SR
      000000F8H.0 SFRSYM    DATA     BIT       RI_1
      000000F8H.1 SFRSYM    DATA     BIT       TI_1
LX51 LINKER/LOCATER V4.66.97.0                                                        04/04/2022  17:40:24  PAGE 13


      000000CBH   SFRSYM    DATA     BYTE      RCMP2H
      000000CFH   SFRSYM    DATA     BYTE      ADCMPH
      00000080H.0 SFRSYM    DATA     BIT       P00
      00000080H.1 SFRSYM    DATA     BIT       P01
      00000090H.0 SFRSYM    DATA     BIT       P10
      000000FBH   SFRSYM    DATA     BYTE      PMEN
      00000099H   SFRSYM    DATA     BYTE      SBUF
      00000087H   SFRSYM    DATA     BYTE      PCON
      00000080H.2 SFRSYM    DATA     BIT       P02
      00000090H.1 SFRSYM    DATA     BIT       P11
      000000A0H.0 SFRSYM    DATA     BIT       P20
      000000CAH   SFRSYM    DATA     BYTE      RCMP2L
      00000080H.3 SFRSYM    DATA     BIT       P03
      00000090H.2 SFRSYM    DATA     BIT       P12
      000000B0H.0 SFRSYM    DATA     BIT       P30
      000000E3H   SFRSYM    DATA     BYTE      ADCDLY
      000000CEH   SFRSYM    DATA     BYTE      ADCMPL
      00000080H.4 SFRSYM    DATA     BIT       P04
      00000090H.3 SFRSYM    DATA     BIT       P13
      00000098H   SFRSYM    DATA     BYTE      SCON
      00000080H.5 SFRSYM    DATA     BIT       P05
      00000090H.4 SFRSYM    DATA     BIT       P14
      00000089H   SFRSYM    DATA     BYTE      TMOD
      00000088H   SFRSYM    DATA     BYTE      TCON
      00000080H.6 SFRSYM    DATA     BIT       P06
      00000090H.5 SFRSYM    DATA     BIT       P15
      00000080H.7 SFRSYM    DATA     BIT       P07
      00000090H.6 SFRSYM    DATA     BIT       P16
      00000090H.7 SFRSYM    DATA     BIT       P17
      00000080H.0 SFRSYM    DATA     BIT       MOSI
      00000080H.1 SFRSYM    DATA     BIT       MISO
      000000F3H   SFRSYM    DATA     BYTE      SPCR
      000000BDH   SFRSYM    DATA     BYTE      I2STAT
      000000F5H   SFRSYM    DATA     BYTE      SPDR
      000000D8H.5 SFRSYM    DATA     BIT       PWMF
      000000E5H   SFRSYM    DATA     BYTE      C0H
      000000E7H   SFRSYM    DATA     BYTE      C1H
      000000EEH   SFRSYM    DATA     BYTE      C2H
      0000009FH   SFRSYM    DATA     BYTE      CHPCON
      00000088H.1 SFRSYM    DATA     BIT       IE0
      00000088H.3 SFRSYM    DATA     BIT       IE1
      000000E4H   SFRSYM    DATA     BYTE      C0L
      00000091H   SFRSYM    DATA     BYTE      SFRS
      000000E6H   SFRSYM    DATA     BYTE      C1L
      000000C8H.0 SFRSYM    DATA     BIT       CM_RL2
      000000F0H   SFRSYM    DATA     BYTE      B
      000000EDH   SFRSYM    DATA     BYTE      C2L
      0000009AH   SFRSYM    DATA     BYTE      SBUF_1
      000000A5H   SFRSYM    DATA     BYTE      IAPUEN
      000000F8H   SFRSYM    DATA     BYTE      SCON_1
      000000E0H   SFRSYM    DATA     BYTE      ACC
      000000A8H.1 SFRSYM    DATA     BIT       ET0
      000000F4H   SFRSYM    DATA     BYTE      SPSR
      000000A4H   SFRSYM    DATA     BYTE      IAPTRG
      00000088H.5 SFRSYM    DATA     BIT       TF0
      000000A8H.3 SFRSYM    DATA     BIT       ET1
      00000088H.7 SFRSYM    DATA     BIT       TF1
      00000098H.2 SFRSYM    DATA     BIT       RB8
      000000C8H.7 SFRSYM    DATA     BIT       TF2
      000000D7H   SFRSYM    DATA     BYTE      FBD
      0000008CH   SFRSYM    DATA     BYTE      TH0
      00000088H.0 SFRSYM    DATA     BIT       IT0
      000000A8H.0 SFRSYM    DATA     BIT       EX0
      000000C6H   SFRSYM    DATA     BYTE      RH3
      0000008DH   SFRSYM    DATA     BYTE      TH1
LX51 LINKER/LOCATER V4.66.97.0                                                        04/04/2022  17:40:24  PAGE 14


      00000088H.2 SFRSYM    DATA     BIT       IT1
      00000098H.3 SFRSYM    DATA     BIT       TB8
      000000A8H.2 SFRSYM    DATA     BIT       EX1
      000000CDH   SFRSYM    DATA     BYTE      TH2
      000000D0H.0 SFRSYM    DATA     BIT       P
      000000FAH   SFRSYM    DATA     BYTE      PDTCNT
      00000098H.7 SFRSYM    DATA     BIT       SM0
      0000008AH   SFRSYM    DATA     BYTE      TL0
      00000098H.6 SFRSYM    DATA     BIT       SM1
      000000C5H   SFRSYM    DATA     BYTE      RL3
      0000008BH   SFRSYM    DATA     BYTE      TL1
      00000098H.5 SFRSYM    DATA     BIT       SM2
      000000C0H.6 SFRSYM    DATA     BIT       I2CEN
      000000CCH   SFRSYM    DATA     BYTE      TL2
      000000B1H   SFRSYM    DATA     BYTE      P0S
      0000009BH   SFRSYM    DATA     BYTE      EIE
      000000B8H.1 SFRSYM    DATA     BIT       PT0
      000000B3H   SFRSYM    DATA     BYTE      P1S
      000000B8H.3 SFRSYM    DATA     BIT       PT1
      000000D0H.3 SFRSYM    DATA     BIT       RS0
      000000BCH   SFRSYM    DATA     BYTE      I2DAT
      000000B5H   SFRSYM    DATA     BYTE      P2S
      00000088H.4 SFRSYM    DATA     BIT       TR0
      000000D0H.4 SFRSYM    DATA     BIT       RS1
      000000BEH   SFRSYM    DATA     BYTE      I2CLK
      000000ACH   SFRSYM    DATA     BYTE      P3S
      00000088H.6 SFRSYM    DATA     BIT       TR1
      000000D8H.4 SFRSYM    DATA     BIT       CLRPWM
      00000090H.4 SFRSYM    DATA     BIT       SDA
      000000B8H.0 SFRSYM    DATA     BIT       PX0
      000000C8H.2 SFRSYM    DATA     BIT       TR2
      000000FFH   SFRSYM    DATA     BYTE      EIPH1
      000000B8H.2 SFRSYM    DATA     BIT       PX1
      000000E8H   SFRSYM    DATA     BYTE      ADCCON0
      000000E1H   SFRSYM    DATA     BYTE      ADCCON1
      000000E2H   SFRSYM    DATA     BYTE      ADCCON2
      000000C0H   SFRSYM    DATA     BYTE      I2CON
      00000083H   SFRSYM    DATA     BYTE      DPH
      000000F8H.2 SFRSYM    DATA     BIT       RB8_1
      000000EFH   SFRSYM    DATA     BYTE      EIP
      000000F8H.3 SFRSYM    DATA     BIT       TB8_1
      000000ECH   SFRSYM    DATA     BYTE      PIF
      00000082H   SFRSYM    DATA     BYTE      DPL
      000000F8H.7 SFRSYM    DATA     BIT       SM0_1
      000000FCH   SFRSYM    DATA     BYTE      PMD
      000000B7H   SFRSYM    DATA     BYTE      IPH
      00000090H.3 SFRSYM    DATA     BIT       SCL
      000000F8H.6 SFRSYM    DATA     BIT       SM1_1
      000000BFH   SFRSYM    DATA     BYTE      I2TOC
      000000F8H.5 SFRSYM    DATA     BIT       SM2_1
      000000C3H   SFRSYM    DATA     BYTE      ADCRH
      000000A7H   SFRSYM    DATA     BYTE      IAPAH
      00000098H.4 SFRSYM    DATA     BIT       REN
      000000AEH   SFRSYM    DATA     BYTE      IAPFD
      00000092H   SFRSYM    DATA     BYTE      CAPCON0
      000000C0H.0 SFRSYM    DATA     BIT       I2CPX
      000000C9H   SFRSYM    DATA     BYTE      T2MOD
      000000C8H   SFRSYM    DATA     BYTE      T2CON
      000000C2H   SFRSYM    DATA     BYTE      ADCRL
      000000A3H   SFRSYM    DATA     BYTE      BODCON0
      00000093H   SFRSYM    DATA     BYTE      CAPCON1
      000000C0H.5 SFRSYM    DATA     BIT       STA
      000000C4H   SFRSYM    DATA     BYTE      T3CON
      000000ABH   SFRSYM    DATA     BYTE      BODCON1
      000000A6H   SFRSYM    DATA     BYTE      IAPAL
LX51 LINKER/LOCATER V4.66.97.0                                                        04/04/2022  17:40:24  PAGE 15


      00000094H   SFRSYM    DATA     BYTE      CAPCON2
      000000F1H   SFRSYM    DATA     BYTE      CAPCON3
      000000F2H   SFRSYM    DATA     BYTE      CAPCON4
      000000D8H.7 SFRSYM    DATA     BIT       PWMRUN
      000000F3H   SFRSYM    DATA     BYTE      SPCR2
      000000B9H   SFRSYM    DATA     BYTE      SADEN
      000000AFH   SFRSYM    DATA     BYTE      IAPCN
      000000D2H   SFRSYM    DATA     BYTE      PWM0H
      00000080H.7 SFRSYM    DATA     BIT       RXD
      000000D6H   SFRSYM    DATA     BYTE      PNP
      000000D3H   SFRSYM    DATA     BYTE      PWM1H
      000000D4H   SFRSYM    DATA     BYTE      PWM2H
      000000A9H   SFRSYM    DATA     BYTE      SADDR
      0000008EH   SFRSYM    DATA     BYTE      CKCON
      00000080H.4 SFRSYM    DATA     BIT       STADC
      00000080H.6 SFRSYM    DATA     BIT       TXD
      000000D5H   SFRSYM    DATA     BYTE      PWM3H
      000000DAH   SFRSYM    DATA     BYTE      PWM0L
      000000C4H   SFRSYM    DATA     BYTE      PWM4H
      000000DBH   SFRSYM    DATA     BYTE      PWM1L
      000000C5H   SFRSYM    DATA     BYTE      PWM5H
      000000A2H   SFRSYM    DATA     BYTE      AUXR1
      00000095H   SFRSYM    DATA     BYTE      CKDIV
      000000DCH   SFRSYM    DATA     BYTE      PWM2L
      000000DDH   SFRSYM    DATA     BYTE      PWM3L
      00000086H   SFRSYM    DATA     BYTE      RWK
      000000D0H.5 SFRSYM    DATA     BIT       F0
      000000CCH   SFRSYM    DATA     BYTE      PWM4L
      000000C0H.4 SFRSYM    DATA     BIT       STO
      000000E8H.4 SFRSYM    DATA     BIT       ETGSEL0
      000000F8H.4 SFRSYM    DATA     BIT       REN_1
      000000CDH   SFRSYM    DATA     BYTE      PWM5L
      000000E8H.5 SFRSYM    DATA     BIT       ETGSEL1
      000000E9H   SFRSYM    DATA     BYTE      PICON
      000000DEH   SFRSYM    DATA     BYTE      PIOCON0
      000000D0H   SFRSYM    DATA     BYTE      PSW
      000000EAH   SFRSYM    DATA     BYTE      PINEN
      000000C6H   SFRSYM    DATA     BYTE      PIOCON1
      000000F9H   SFRSYM    DATA     BYTE      PDTEN
      000000AAH   SFRSYM    DATA     BYTE      WDCON
      000000EBH   SFRSYM    DATA     BYTE      PIPEN
      000000BAH   SFRSYM    DATA     BYTE      SADEN_1

      01000028H   BLOCK     CODE     ---       LVL=0
      01000028H   BLOCK     CODE     NEAR LAB  LVL=1
      00000007H   SYMBOL    DATA     BYTE      i
      ---         BLOCKEND  ---      ---       LVL=1
      01000028H   LINE      CODE     ---       #446
      01000028H   LINE      CODE     ---       #447
      01000028H   LINE      CODE     ---       #450
      01000029H   LINE      CODE     ---       #451
      0100002AH   LINE      CODE     ---       #452
      0100002CH   LINE      CODE     ---       #453
      0100002EH   LINE      CODE     ---       #454
      ---         BLOCKEND  ---      ---       LVL=0

      01000003H   BLOCK     CODE     ---       LVL=0
      01000003H   BLOCK     CODE     NEAR LAB  LVL=1
      00000006H   SYMBOL    DATA     BYTE      deadtmphigh
      00000007H   SYMBOL    DATA     BYTE      deadtmplow
      ---         BLOCKEND  ---      ---       LVL=1
      01000003H   LINE      CODE     ---       #477
      01000003H   LINE      CODE     ---       #478
      01000003H   LINE      CODE     ---       #480
      01000005H   LINE      CODE     ---       #481
LX51 LINKER/LOCATER V4.66.97.0                                                        04/04/2022  17:40:24  PAGE 16


      01000007H   LINE      CODE     ---       #482
      0100000BH   LINE      CODE     ---       #483
      01000010H   LINE      CODE     ---       #484
      01000010H   LINE      CODE     ---       #485
      01000012H   LINE      CODE     ---       #486
      01000015H   LINE      CODE     ---       #487
      01000018H   LINE      CODE     ---       #488
      0100001BH   LINE      CODE     ---       #489
      0100001BH   LINE      CODE     ---       #490
      0100001EH   LINE      CODE     ---       #491
      01000021H   LINE      CODE     ---       #492
      01000023H   LINE      CODE     ---       #493
      01000027H   LINE      CODE     ---       #494
      ---         BLOCKEND  ---      ---       LVL=0

      01000430H   BLOCK     CODE     ---       LVL=0
      01000430H   LINE      CODE     ---       #499
      01000430H   LINE      CODE     ---       #500
      01000430H   LINE      CODE     ---       #501
      01000432H   LINE      CODE     ---       #502
      01000434H   LINE      CODE     ---       #504
      01000436H   LINE      CODE     ---       #506
      0100043CH   LINE      CODE     ---       #507
      0100043EH   LINE      CODE     ---       #508
      01000440H   LINE      CODE     ---       #509
      01000446H   LINE      CODE     ---       #511
      01000448H   LINE      CODE     ---       #512
      0100044EH   LINE      CODE     ---       #513
      01000450H   LINE      CODE     ---       #514
      01000456H   LINE      CODE     ---       #515
      0100045CH   LINE      CODE     ---       #516
      01000462H   LINE      CODE     ---       #517
      01000468H   LINE      CODE     ---       #518
      0100046AH   LINE      CODE     ---       #519
      0100046CH   LINE      CODE     ---       #520
      01000472H   LINE      CODE     ---       #521
      01000478H   LINE      CODE     ---       #522
      0100047EH   LINE      CODE     ---       #523
      01000484H   LINE      CODE     ---       #525
      0100048AH   LINE      CODE     ---       #526
      01000490H   LINE      CODE     ---       #527
      01000496H   LINE      CODE     ---       #531
      01000499H   LINE      CODE     ---       #532
      0100049CH   LINE      CODE     ---       #533
      010004A2H   LINE      CODE     ---       #536
      010004A5H   LINE      CODE     ---       #538
      010004B8H   LINE      CODE     ---       #539
      010004BEH   LINE      CODE     ---       #540
      010004C1H   LINE      CODE     ---       #541
      010004C4H   LINE      CODE     ---       #543
      010004C7H   LINE      CODE     ---       #549
      010004DAH   LINE      CODE     ---       #550
      010004DDH   LINE      CODE     ---       #551
      010004DFH   LINE      CODE     ---       #552
      010004F2H   LINE      CODE     ---       #555
      010004F4H   LINE      CODE     ---       #556
      010004F6H   LINE      CODE     ---       #558
      010004F9H   LINE      CODE     ---       #559
      010004FCH   LINE      CODE     ---       #560
      010004FFH   LINE      CODE     ---       #561
      01000501H   LINE      CODE     ---       #562
      01000504H   LINE      CODE     ---       #564
      0100050DH   LINE      CODE     ---       #565
      0100051EH   LINE      CODE     ---       #567
      01000523H   LINE      CODE     ---       #568
LX51 LINKER/LOCATER V4.66.97.0                                                        04/04/2022  17:40:24  PAGE 17


      01000525H   LINE      CODE     ---       #569
      01000527H   LINE      CODE     ---       #570
      01000529H   LINE      CODE     ---       #573
      0100052CH   LINE      CODE     ---       #576
      01000530H   LINE      CODE     ---       #577
      01000533H   LINE      CODE     ---       #578
      01000538H   LINE      CODE     ---       #579
      0100053DH   LINE      CODE     ---       #580
      0100053FH   LINE      CODE     ---       #584
      01000541H   LINE      CODE     ---       #585
      01000543H   LINE      CODE     ---       #586
      01000545H   LINE      CODE     ---       #588
      0100054AH   LINE      CODE     ---       #589
      0100054CH   LINE      CODE     ---       #590
      0100054EH   LINE      CODE     ---       #591
      01000552H   LINE      CODE     ---       #593
      01000554H   LINE      CODE     ---       #594
      01000556H   LINE      CODE     ---       #595
      01000558H   LINE      CODE     ---       #596
      0100055AH   LINE      CODE     ---       #598
      01000560H   LINE      CODE     ---       #600
      01000562H   LINE      CODE     ---       #601
      01000564H   LINE      CODE     ---       #602
      01000567H   LINE      CODE     ---       #603
      0100056AH   LINE      CODE     ---       #604
      0100056CH   LINE      CODE     ---       #605
      0100056EH   LINE      CODE     ---       #606
      01000571H   LINE      CODE     ---       #607
      01000573H   LINE      CODE     ---       #608
      01000575H   LINE      CODE     ---       #611
      ---         BLOCKEND  ---      ---       LVL=0

      0100003EH   BLOCK     CODE     ---       LVL=0
      0100003EH   LINE      CODE     ---       #614
      01000047H   LINE      CODE     ---       #616
      0100004AH   LINE      CODE     ---       #617
      0100004FH   LINE      CODE     ---       #618
      ---         BLOCKEND  ---      ---       LVL=0

      01000576H   BLOCK     CODE     ---       LVL=0
      01000576H   LINE      CODE     ---       #621
      01000576H   LINE      CODE     ---       #622
      01000576H   LINE      CODE     ---       #623
      01000582H   LINE      CODE     ---       #624
      01000582H   LINE      CODE     ---       #625
      0100058CH   LINE      CODE     ---       #626
      0100058CH   LINE      CODE     ---       #627
      0100058FH   LINE      CODE     ---       #628
      01000593H   LINE      CODE     ---       #629
      01000595H   LINE      CODE     ---       #630
      0100059BH   LINE      CODE     ---       #631
      0100059DH   LINE      CODE     ---       #632
      010005A0H   LINE      CODE     ---       #633
      010005ACH   LINE      CODE     ---       #634
      010005ACH   LINE      CODE     ---       #636
      010005ACH   LINE      CODE     ---       #637
      010005B2H   LINE      CODE     ---       #638
      010005B4H   LINE      CODE     ---       #639
      010005C0H   LINE      CODE     ---       #640
      010005C0H   LINE      CODE     ---       #642
      010005C0H   LINE      CODE     ---       #643
      010005C2H   LINE      CODE     ---       #644
      010005CEH   LINE      CODE     ---       #645
      010005CEH   LINE      CODE     ---       #646
      010005D1H   LINE      CODE     ---       #647
LX51 LINKER/LOCATER V4.66.97.0                                                        04/04/2022  17:40:24  PAGE 18


      010005D1H   LINE      CODE     ---       #648
      010005D6H   LINE      CODE     ---       #649
      010005DBH   LINE      CODE     ---       #650
      010005DBH   LINE      CODE     ---       #651
      010005DDH   LINE      CODE     ---       #653
      010005E3H   LINE      CODE     ---       #654
      010005E5H   LINE      CODE     ---       #655
      010005E9H   LINE      CODE     ---       #656
      010005F5H   LINE      CODE     ---       #657
      010005F5H   LINE      CODE     ---       #659
      010005F5H   LINE      CODE     ---       #660
      010005FBH   LINE      CODE     ---       #661
      010005FDH   LINE      CODE     ---       #662
      01000609H   LINE      CODE     ---       #663
      01000609H   LINE      CODE     ---       #664
      0100060CH   LINE      CODE     ---       #665
      0100060CH   LINE      CODE     ---       #666
      01000611H   LINE      CODE     ---       #667
      01000616H   LINE      CODE     ---       #668
      01000616H   LINE      CODE     ---       #669
      01000618H   LINE      CODE     ---       #670
      0100061AH   LINE      CODE     ---       #672
      0100061AH   LINE      CODE     ---       #673
      0100061CH   LINE      CODE     ---       #675
      0100061CH   LINE      CODE     ---       #676
      01000621H   LINE      CODE     ---       #677
      01000621H   LINE      CODE     ---       #680
      0100062BH   LINE      CODE     ---       #681
      0100062BH   LINE      CODE     ---       #682
      0100062DH   LINE      CODE     ---       #684
      01000640H   LINE      CODE     ---       #685
      01000643H   LINE      CODE     ---       #686
      01000649H   LINE      CODE     ---       #687
      0100065CH   LINE      CODE     ---       #688
      0100065EH   LINE      CODE     ---       #690
      0100066AH   LINE      CODE     ---       #691
      0100066AH   LINE      CODE     ---       #692
      0100066DH   LINE      CODE     ---       #693
      01000670H   LINE      CODE     ---       #694
      01000672H   LINE      CODE     ---       #695
      01000674H   LINE      CODE     ---       #696
      01000676H   LINE      CODE     ---       #698
      01000677H   LINE      CODE     ---       #701
      0100067BH   LINE      CODE     ---       #702
      0100067BH   LINE      CODE     ---       #703
      0100067EH   LINE      CODE     ---       #704
      01000681H   LINE      CODE     ---       #705
      01000683H   LINE      CODE     ---       #706
      01000685H   LINE      CODE     ---       #707
      01000687H   LINE      CODE     ---       #709
      01000688H   LINE      CODE     ---       #711
      01000688H   LINE      CODE     ---       #712
      0100068BH   LINE      CODE     ---       #713
      0100068BH   LINE      CODE     ---       #716
      0100068EH   LINE      CODE     ---       #717
      01000692H   LINE      CODE     ---       #719
      01000695H   LINE      CODE     ---       #720
      01000697H   LINE      CODE     ---       #721
      01000697H   LINE      CODE     ---       #722
      01000697H   LINE      CODE     ---       #724
      01000697H   LINE      CODE     ---       #725
      ---         BLOCKEND  ---      ---       LVL=0

      01000800H   BLOCK     CODE     ---       LVL=0
      01000800H   BLOCK     CODE     NEAR LAB  LVL=1
LX51 LINKER/LOCATER V4.66.97.0                                                        04/04/2022  17:40:24  PAGE 19


      00000005H   SYMBOL    DATA     BYTE      temp
      010009E4H   SYMBOL    CODE     ---       NoTestAD
      010011E8H   SYMBOL    CODE     ---       ESC_STOP2
      01001207H   SYMBOL    CODE     ---       ESC_STOP8
      ---         BLOCKEND  ---      ---       LVL=1
      01000800H   LINE      CODE     ---       #727
      01000800H   LINE      CODE     ---       #728
      01000800H   LINE      CODE     ---       #731
      01000808H   LINE      CODE     ---       #732
      01000808H   LINE      CODE     ---       #733
      0100080AH   LINE      CODE     ---       #734
      01000816H   LINE      CODE     ---       #735
      01000819H   LINE      CODE     ---       #737
      01000825H   LINE      CODE     ---       #738
      01000828H   LINE      CODE     ---       #740
      0100082DH   LINE      CODE     ---       #741
      01000837H   LINE      CODE     ---       #742
      01000837H   LINE      CODE     ---       #743
      01000839H   LINE      CODE     ---       #744
      0100083EH   LINE      CODE     ---       #745
      01000840H   LINE      CODE     ---       #746
      01000842H   LINE      CODE     ---       #747
      0100084CH   LINE      CODE     ---       #748
      0100084CH   LINE      CODE     ---       #749
      0100084EH   LINE      CODE     ---       #751
      01000853H   LINE      CODE     ---       #752
      01000856H   LINE      CODE     ---       #754
      0100085BH   LINE      CODE     ---       #755
      0100085BH   LINE      CODE     ---       #756
      0100085EH   LINE      CODE     ---       #757
      0100085EH   LINE      CODE     ---       #759
      0100085EH   LINE      CODE     ---       #760
      0100085EH   LINE      CODE     ---       #762
      01000895H   LINE      CODE     ---       #765
      01000895H   LINE      CODE     ---       #766
      01000897H   LINE      CODE     ---       #767
      01000899H   LINE      CODE     ---       #768
      0100089BH   LINE      CODE     ---       #769
      0100089DH   LINE      CODE     ---       #770
      0100089FH   LINE      CODE     ---       #772
      010008A2H   LINE      CODE     ---       #773
      010008A2H   LINE      CODE     ---       #774
      010008A4H   LINE      CODE     ---       #775
      010008A6H   LINE      CODE     ---       #776
      010008A8H   LINE      CODE     ---       #777
      010008AAH   LINE      CODE     ---       #778
      010008AAH   LINE      CODE     ---       #783
      010008ADH   LINE      CODE     ---       #784
      010008ADH   LINE      CODE     ---       #785
      010008AFH   LINE      CODE     ---       #786
      010008B5H   LINE      CODE     ---       #787
      010008B7H   LINE      CODE     ---       #788
      010008B7H   LINE      CODE     ---       #791
      010008BAH   LINE      CODE     ---       #792
      010008BAH   LINE      CODE     ---       #793
      010008C5H   LINE      CODE     ---       #794
      010008D0H   LINE      CODE     ---       #795
      010008D0H   LINE      CODE     ---       #796
      010008D2H   LINE      CODE     ---       #797
      010008D4H   LINE      CODE     ---       #798
      010008D4H   LINE      CODE     ---       #799
      010008D4H   LINE      CODE     ---       #802
      010008EEH   LINE      CODE     ---       #803
      010008EEH   LINE      CODE     ---       #804
      01000908H   LINE      CODE     ---       #805
LX51 LINKER/LOCATER V4.66.97.0                                                        04/04/2022  17:40:24  PAGE 20


      01000908H   LINE      CODE     ---       #806
      0100090AH   LINE      CODE     ---       #807
      0100090AH   LINE      CODE     ---       #808
      0100090DH   LINE      CODE     ---       #809
      0100090DH   LINE      CODE     ---       #811
      0100090DH   LINE      CODE     ---       #812
      01000913H   LINE      CODE     ---       #813
      01000915H   LINE      CODE     ---       #814
      01000915H   LINE      CODE     ---       #816
      0100091AH   LINE      CODE     ---       #817
      01000925H   LINE      CODE     ---       #819
      0100092FH   LINE      CODE     ---       #821
      0100093CH   LINE      CODE     ---       #822
      0100093CH   LINE      CODE     ---       #826
      01000943H   LINE      CODE     ---       #827
      01000943H   LINE      CODE     ---       #828
      01000948H   LINE      CODE     ---       #829
      0100094CH   LINE      CODE     ---       #830
      01000950H   LINE      CODE     ---       #832
      01000955H   LINE      CODE     ---       #834
      01000957H   LINE      CODE     ---       #835
      0100095CH   LINE      CODE     ---       #836
      01000961H   LINE      CODE     ---       #837
      01000963H   LINE      CODE     ---       #838
      01000963H   LINE      CODE     ---       #841
      0100096AH   LINE      CODE     ---       #842
      0100096AH   LINE      CODE     ---       #843
      0100096CH   LINE      CODE     ---       #844
      01000971H   LINE      CODE     ---       #845
      01000975H   LINE      CODE     ---       #846
      01000979H   LINE      CODE     ---       #848
      0100097EH   LINE      CODE     ---       #850
      01000980H   LINE      CODE     ---       #851
      01000985H   LINE      CODE     ---       #852
      0100098AH   LINE      CODE     ---       #853
      0100098CH   LINE      CODE     ---       #854
      0100098CH   LINE      CODE     ---       #857
      01000993H   LINE      CODE     ---       #858
      01000993H   LINE      CODE     ---       #860
      01000995H   LINE      CODE     ---       #861
      0100099AH   LINE      CODE     ---       #862
      0100099EH   LINE      CODE     ---       #864
      010009A2H   LINE      CODE     ---       #865
      010009A7H   LINE      CODE     ---       #867
      010009A9H   LINE      CODE     ---       #868
      010009AEH   LINE      CODE     ---       #869
      010009B3H   LINE      CODE     ---       #870
      010009B5H   LINE      CODE     ---       #871
      010009B5H   LINE      CODE     ---       #873
      010009BAH   LINE      CODE     ---       #874
      010009BAH   LINE      CODE     ---       #875
      010009BCH   LINE      CODE     ---       #876
      010009C1H   LINE      CODE     ---       #877
      010009C5H   LINE      CODE     ---       #879
      010009C9H   LINE      CODE     ---       #880
      010009CEH   LINE      CODE     ---       #882
      010009D0H   LINE      CODE     ---       #883
      010009D5H   LINE      CODE     ---       #884
      010009D9H   LINE      CODE     ---       #885
      010009DBH   LINE      CODE     ---       #886
      010009DBH   LINE      CODE     ---       #887
      010009E1H   LINE      CODE     ---       #888
      010009E4H   LINE      CODE     ---       #890
      010009E4H   LINE      CODE     ---       #892
      010009EFH   LINE      CODE     ---       #893
LX51 LINKER/LOCATER V4.66.97.0                                                        04/04/2022  17:40:24  PAGE 21


      010009EFH   LINE      CODE     ---       #894
      010009F2H   LINE      CODE     ---       #895
      010009F2H   LINE      CODE     ---       #896
      010009F4H   LINE      CODE     ---       #897
      010009F6H   LINE      CODE     ---       #898
      010009F8H   LINE      CODE     ---       #900
      010009F8H   LINE      CODE     ---       #901
      010009FAH   LINE      CODE     ---       #902
      010009FCH   LINE      CODE     ---       #903
      010009FCH   LINE      CODE     ---       #904
      010009FEH   LINE      CODE     ---       #906
      010009FEH   LINE      CODE     ---       #907
      01000A00H   LINE      CODE     ---       #908
      01000A02H   LINE      CODE     ---       #909
      01000A02H   LINE      CODE     ---       #912
      01000A0AH   LINE      CODE     ---       #913
      01000A0AH   LINE      CODE     ---       #914
      01000A0EH   LINE      CODE     ---       #915
      01000A10H   LINE      CODE     ---       #916
      01000A12H   LINE      CODE     ---       #917
      01000A16H   LINE      CODE     ---       #918
      01000A16H   LINE      CODE     ---       #920
      01000A1CH   LINE      CODE     ---       #921
      01000A1CH   LINE      CODE     ---       #922
      01000A20H   LINE      CODE     ---       #923
      01000A23H   LINE      CODE     ---       #924
      01000A25H   LINE      CODE     ---       #925
      01000A27H   LINE      CODE     ---       #926
      01000A29H   LINE      CODE     ---       #928
      01000A2CH   LINE      CODE     ---       #929
      01000A2CH   LINE      CODE     ---       #930
      01000A2FH   LINE      CODE     ---       #931
      01000A35H   LINE      CODE     ---       #932
      01000A39H   LINE      CODE     ---       #933
      01000A45H   LINE      CODE     ---       #934
      01000A48H   LINE      CODE     ---       #936
      01000A54H   LINE      CODE     ---       #937
      01000A54H   LINE      CODE     ---       #938
      01000A56H   LINE      CODE     ---       #939
      01000A5AH   LINE      CODE     ---       #940
      01000A5CH   LINE      CODE     ---       #941
      01000A5EH   LINE      CODE     ---       #942
      01000A60H   LINE      CODE     ---       #944
      01000A61H   LINE      CODE     ---       #945
      01000A63H   LINE      CODE     ---       #947
      01000A63H   LINE      CODE     ---       #948
      01000A66H   LINE      CODE     ---       #949
      01000A66H   LINE      CODE     ---       #950
      01000A69H   LINE      CODE     ---       #951
      01000A6FH   LINE      CODE     ---       #952
      01000A73H   LINE      CODE     ---       #953
      01000A7FH   LINE      CODE     ---       #954
      01000A82H   LINE      CODE     ---       #955
      01000A8EH   LINE      CODE     ---       #956
      01000A8EH   LINE      CODE     ---       #957
      01000A90H   LINE      CODE     ---       #958
      01000A94H   LINE      CODE     ---       #959
      01000A96H   LINE      CODE     ---       #960
      01000A98H   LINE      CODE     ---       #961
      01000A9AH   LINE      CODE     ---       #963
      01000A9AH   LINE      CODE     ---       #964
      01000A9EH   LINE      CODE     ---       #965
      01000A9EH   LINE      CODE     ---       #966
      01000AA0H   LINE      CODE     ---       #968
      01000AA0H   LINE      CODE     ---       #969
LX51 LINKER/LOCATER V4.66.97.0                                                        04/04/2022  17:40:24  PAGE 22


      01000AA4H   LINE      CODE     ---       #970
      01000AA7H   LINE      CODE     ---       #971
      01000AA7H   LINE      CODE     ---       #972
      01000AA7H   LINE      CODE     ---       #973
      01000AC1H   LINE      CODE     ---       #974
      01000AC1H   LINE      CODE     ---       #975
      01000ACDH   LINE      CODE     ---       #976
      01000AD0H   LINE      CODE     ---       #978
      01000AD5H   LINE      CODE     ---       #979
      01000AE3H   LINE      CODE     ---       #980
      01000AE3H   LINE      CODE     ---       #981
      01000AE5H   LINE      CODE     ---       #982
      01000AE8H   LINE      CODE     ---       #983
      01000AE8H   LINE      CODE     ---       #984
      01000AFEH   LINE      CODE     ---       #985
      01000B01H   LINE      CODE     ---       #987
      01000B08H   LINE      CODE     ---       #988
      01000B0BH   LINE      CODE     ---       #989
      01000B0BH   LINE      CODE     ---       #991
      01000B23H   LINE      CODE     ---       #992
      01000B23H   LINE      CODE     ---       #993
      01000B2FH   LINE      CODE     ---       #994
      01000B2FH   LINE      CODE     ---       #998
      01000B31H   LINE      CODE     ---       #1001
      01000B31H   LINE      CODE     ---       #1002
      01000B34H   LINE      CODE     ---       #1003
      01000B34H   LINE      CODE     ---       #1004
      01000B36H   LINE      CODE     ---       #1005
      01000B3BH   LINE      CODE     ---       #1006
      01000B40H   LINE      CODE     ---       #1008
      01000B4CH   LINE      CODE     ---       #1009
      01000B4FH   LINE      CODE     ---       #1012
      01000B62H   LINE      CODE     ---       #1013
      01000B62H   LINE      CODE     ---       #1015
      01000B6DH   LINE      CODE     ---       #1016
      01000B78H   LINE      CODE     ---       #1017
      01000B78H   LINE      CODE     ---       #1018
      01000B7AH   LINE      CODE     ---       #1019
      01000B7FH   LINE      CODE     ---       #1020
      01000B85H   LINE      CODE     ---       #1021
      01000B85H   LINE      CODE     ---       #1022
      01000B85H   LINE      CODE     ---       #1023
      01000B96H   LINE      CODE     ---       #1024
      01000B96H   LINE      CODE     ---       #1025
      01000B9BH   LINE      CODE     ---       #1026
      01000B9BH   LINE      CODE     ---       #1027
      01000B9BH   LINE      CODE     ---       #1028
      01000B9DH   LINE      CODE     ---       #1030
      01000B9DH   LINE      CODE     ---       #1034
      01000B9FH   LINE      CODE     ---       #1035
      01000BA4H   LINE      CODE     ---       #1036
      01000BA4H   LINE      CODE     ---       #1038
      01000BA4H   LINE      CODE     ---       #1039
      01000BA6H   LINE      CODE     ---       #1041
      01000BA6H   LINE      CODE     ---       #1042
      01000BAAH   LINE      CODE     ---       #1043
      01000BAAH   LINE      CODE     ---       #1044
      01000BAFH   LINE      CODE     ---       #1045
      01000BBBH   LINE      CODE     ---       #1046
      01000BBBH   LINE      CODE     ---       #1047
      01000BBDH   LINE      CODE     ---       #1049
      01000BC9H   LINE      CODE     ---       #1050
      01000BCCH   LINE      CODE     ---       #1052
      01000BEFH   LINE      CODE     ---       #1055
      01000BEFH   LINE      CODE     ---       #1057
LX51 LINKER/LOCATER V4.66.97.0                                                        04/04/2022  17:40:24  PAGE 23


      01000BFDH   LINE      CODE     ---       #1058
      01000BFDH   LINE      CODE     ---       #1059
      01000BFFH   LINE      CODE     ---       #1060
      01000C04H   LINE      CODE     ---       #1061
      01000C04H   LINE      CODE     ---       #1062
      01000C06H   LINE      CODE     ---       #1064
      01000C14H   LINE      CODE     ---       #1065
      01000C14H   LINE      CODE     ---       #1066
      01000C16H   LINE      CODE     ---       #1067
      01000C1BH   LINE      CODE     ---       #1068
      01000C21H   LINE      CODE     ---       #1069
      01000C21H   LINE      CODE     ---       #1070
      01000C27H   LINE      CODE     ---       #1071
      01000C2EH   LINE      CODE     ---       #1073
      01000C30H   LINE      CODE     ---       #1074
      01000C30H   LINE      CODE     ---       #1075
      01000C45H   LINE      CODE     ---       #1076
      01000C45H   LINE      CODE     ---       #1077
      01000C49H   LINE      CODE     ---       #1078
      01000C4BH   LINE      CODE     ---       #1079
      01000C4BH   LINE      CODE     ---       #1080
      01000C4BH   LINE      CODE     ---       #1081
      01000C55H   LINE      CODE     ---       #1082
      01000C55H   LINE      CODE     ---       #1083
      01000C5AH   LINE      CODE     ---       #1084
      01000C5CH   LINE      CODE     ---       #1085
      01000C62H   LINE      CODE     ---       #1086
      01000C62H   LINE      CODE     ---       #1087
      01000C67H   LINE      CODE     ---       #1088
      01000C69H   LINE      CODE     ---       #1090
      01000C6FH   LINE      CODE     ---       #1091
      01000C6FH   LINE      CODE     ---       #1092
      01000C74H   LINE      CODE     ---       #1093
      01000C76H   LINE      CODE     ---       #1095
      01000C79H   LINE      CODE     ---       #1096
      01000C79H   LINE      CODE     ---       #1097
      01000C7EH   LINE      CODE     ---       #1098
      01000C80H   LINE      CODE     ---       #1100
      01000C89H   LINE      CODE     ---       #1101
      01000C89H   LINE      CODE     ---       #1102
      01000C8EH   LINE      CODE     ---       #1103
      01000C90H   LINE      CODE     ---       #1105
      01000C93H   LINE      CODE     ---       #1106
      01000C93H   LINE      CODE     ---       #1107
      01000C98H   LINE      CODE     ---       #1108
      01000C9AH   LINE      CODE     ---       #1110
      01000C9AH   LINE      CODE     ---       #1111
      01000C9EH   LINE      CODE     ---       #1112
      01000C9EH   LINE      CODE     ---       #1114
      01000CADH   LINE      CODE     ---       #1115
      01000CADH   LINE      CODE     ---       #1116
      01000CB2H   LINE      CODE     ---       #1117
      01000CB4H   LINE      CODE     ---       #1119
      01000CBFH   LINE      CODE     ---       #1120
      01000CBFH   LINE      CODE     ---       #1121
      01000CC1H   LINE      CODE     ---       #1122
      01000CC5H   LINE      CODE     ---       #1123
      01000CC8H   LINE      CODE     ---       #1124
      01000CCDH   LINE      CODE     ---       #1125
      01000CCFH   LINE      CODE     ---       #1127
      01000CDAH   LINE      CODE     ---       #1128
      01000CDAH   LINE      CODE     ---       #1129
      01000CDCH   LINE      CODE     ---       #1130
      01000CE0H   LINE      CODE     ---       #1131
      01000CE3H   LINE      CODE     ---       #1132
LX51 LINKER/LOCATER V4.66.97.0                                                        04/04/2022  17:40:24  PAGE 24


      01000CE7H   LINE      CODE     ---       #1133
      01000CE9H   LINE      CODE     ---       #1135
      01000CE9H   LINE      CODE     ---       #1136
      01000CEBH   LINE      CODE     ---       #1137
      01000CEFH   LINE      CODE     ---       #1138
      01000CF2H   LINE      CODE     ---       #1139
      01000CF5H   LINE      CODE     ---       #1140
      01000CF5H   LINE      CODE     ---       #1160
      01000D06H   LINE      CODE     ---       #1161
      01000D06H   LINE      CODE     ---       #1162
      01000D08H   LINE      CODE     ---       #1167
      01000D0BH   LINE      CODE     ---       #1168
      01000D0BH   LINE      CODE     ---       #1171
      01000D0EH   LINE      CODE     ---       #1172
      01000D0EH   LINE      CODE     ---       #1173
      01000D17H   LINE      CODE     ---       #1174
      01000D17H   LINE      CODE     ---       #1175
      01000D25H   LINE      CODE     ---       #1176
      01000D25H   LINE      CODE     ---       #1177
      01000D27H   LINE      CODE     ---       #1178
      01000D29H   LINE      CODE     ---       #1179
      01000D2EH   LINE      CODE     ---       #1180
      01000D2EH   LINE      CODE     ---       #1181
      01000D2EH   LINE      CODE     ---       #1182
      01000D2EH   LINE      CODE     ---       #1183
      01000D38H   LINE      CODE     ---       #1184
      01000D38H   LINE      CODE     ---       #1185
      01000D46H   LINE      CODE     ---       #1186
      01000D46H   LINE      CODE     ---       #1187
      01000D48H   LINE      CODE     ---       #1188
      01000D4AH   LINE      CODE     ---       #1189
      01000D4FH   LINE      CODE     ---       #1190
      01000D4FH   LINE      CODE     ---       #1191
      01000D4FH   LINE      CODE     ---       #1193
      01000D55H   LINE      CODE     ---       #1194
      01000D55H   LINE      CODE     ---       #1195
      01000D63H   LINE      CODE     ---       #1196
      01000D63H   LINE      CODE     ---       #1197
      01000D65H   LINE      CODE     ---       #1198
      01000D67H   LINE      CODE     ---       #1199
      01000D6CH   LINE      CODE     ---       #1200
      01000D6CH   LINE      CODE     ---       #1201
      01000D6CH   LINE      CODE     ---       #1203
      01000D6EH   LINE      CODE     ---       #1205
      01000D6EH   LINE      CODE     ---       #1206
      01000D72H   LINE      CODE     ---       #1207
      01000D77H   LINE      CODE     ---       #1208
      01000D79H   LINE      CODE     ---       #1209
      01000D79H   LINE      CODE     ---       #1213
      01000D7CH   LINE      CODE     ---       #1214
      01000D7CH   LINE      CODE     ---       #1215
      01000D85H   LINE      CODE     ---       #1216
      01000D85H   LINE      CODE     ---       #1217
      01000D93H   LINE      CODE     ---       #1218
      01000D93H   LINE      CODE     ---       #1219
      01000D95H   LINE      CODE     ---       #1220
      01000D97H   LINE      CODE     ---       #1221
      01000D9CH   LINE      CODE     ---       #1222
      01000D9CH   LINE      CODE     ---       #1223
      01000D9CH   LINE      CODE     ---       #1225
      01000DA3H   LINE      CODE     ---       #1226
      01000DA3H   LINE      CODE     ---       #1227
      01000DB1H   LINE      CODE     ---       #1228
      01000DB1H   LINE      CODE     ---       #1229
      01000DB3H   LINE      CODE     ---       #1230
LX51 LINKER/LOCATER V4.66.97.0                                                        04/04/2022  17:40:24  PAGE 25


      01000DB5H   LINE      CODE     ---       #1231
      01000DBAH   LINE      CODE     ---       #1232
      01000DBAH   LINE      CODE     ---       #1233
      01000DBAH   LINE      CODE     ---       #1235
      01000DC1H   LINE      CODE     ---       #1236
      01000DC1H   LINE      CODE     ---       #1237
      01000DCFH   LINE      CODE     ---       #1238
      01000DCFH   LINE      CODE     ---       #1239
      01000DD1H   LINE      CODE     ---       #1240
      01000DD3H   LINE      CODE     ---       #1241
      01000DD8H   LINE      CODE     ---       #1242
      01000DD8H   LINE      CODE     ---       #1243
      01000DD8H   LINE      CODE     ---       #1244
      01000DDAH   LINE      CODE     ---       #1246
      01000DDAH   LINE      CODE     ---       #1247
      01000DDEH   LINE      CODE     ---       #1248
      01000DE3H   LINE      CODE     ---       #1249
      01000DE5H   LINE      CODE     ---       #1250
      01000DE5H   LINE      CODE     ---       #1253
      01000DE8H   LINE      CODE     ---       #1254
      01000DE8H   LINE      CODE     ---       #1255
      01000DF1H   LINE      CODE     ---       #1256
      01000DF1H   LINE      CODE     ---       #1257
      01000DFFH   LINE      CODE     ---       #1258
      01000DFFH   LINE      CODE     ---       #1259
      01000E01H   LINE      CODE     ---       #1260
      01000E03H   LINE      CODE     ---       #1261
      01000E08H   LINE      CODE     ---       #1262
      01000E08H   LINE      CODE     ---       #1263
      01000E08H   LINE      CODE     ---       #1264
      01000E15H   LINE      CODE     ---       #1265
      01000E15H   LINE      CODE     ---       #1266
      01000E23H   LINE      CODE     ---       #1267
      01000E23H   LINE      CODE     ---       #1268
      01000E25H   LINE      CODE     ---       #1269
      01000E27H   LINE      CODE     ---       #1270
      01000E2CH   LINE      CODE     ---       #1271
      01000E2CH   LINE      CODE     ---       #1272
      01000E2CH   LINE      CODE     ---       #1273
      01000E2EH   LINE      CODE     ---       #1275
      01000E2EH   LINE      CODE     ---       #1276
      01000E32H   LINE      CODE     ---       #1277
      01000E37H   LINE      CODE     ---       #1278
      01000E39H   LINE      CODE     ---       #1279
      01000E39H   LINE      CODE     ---       #1282
      01000E3CH   LINE      CODE     ---       #1283
      01000E3CH   LINE      CODE     ---       #1284
      01000E4AH   LINE      CODE     ---       #1285
      01000E4AH   LINE      CODE     ---       #1286
      01000E4CH   LINE      CODE     ---       #1287
      01000E4EH   LINE      CODE     ---       #1288
      01000E50H   LINE      CODE     ---       #1289
      01000E55H   LINE      CODE     ---       #1290
      01000E57H   LINE      CODE     ---       #1291
      01000E57H   LINE      CODE     ---       #1292
      01000E59H   LINE      CODE     ---       #1294
      01000E59H   LINE      CODE     ---       #1295
      01000E5DH   LINE      CODE     ---       #1296
      01000E62H   LINE      CODE     ---       #1297
      01000E62H   LINE      CODE     ---       #1298
      01000E64H   LINE      CODE     ---       #1299
      01000E67H   LINE      CODE     ---       #1300
      01000E69H   LINE      CODE     ---       #1301
      01000E69H   LINE      CODE     ---       #1302
      01000E69H   LINE      CODE     ---       #1303
LX51 LINKER/LOCATER V4.66.97.0                                                        04/04/2022  17:40:24  PAGE 26


      01000E6CH   LINE      CODE     ---       #1304
      01000E6CH   LINE      CODE     ---       #1305
      01000E7AH   LINE      CODE     ---       #1306
      01000E7AH   LINE      CODE     ---       #1307
      01000E7CH   LINE      CODE     ---       #1308
      01000E7EH   LINE      CODE     ---       #1309
      01000E80H   LINE      CODE     ---       #1310
      01000E82H   LINE      CODE     ---       #1311
      01000E87H   LINE      CODE     ---       #1312
      01000E87H   LINE      CODE     ---       #1313
      01000E89H   LINE      CODE     ---       #1315
      01000E89H   LINE      CODE     ---       #1316
      01000E8DH   LINE      CODE     ---       #1317
      01000E92H   LINE      CODE     ---       #1318
      01000E92H   LINE      CODE     ---       #1319
      01000E94H   LINE      CODE     ---       #1320
      01000E97H   LINE      CODE     ---       #1321
      01000E99H   LINE      CODE     ---       #1322
      01000E99H   LINE      CODE     ---       #1323
      01000E99H   LINE      CODE     ---       #1341
      01000E9CH   LINE      CODE     ---       #1342
      01000E9CH   LINE      CODE     ---       #1343
      01000EC3H   LINE      CODE     ---       #1344
      01000EC3H   LINE      CODE     ---       #1345
      01000ED0H   LINE      CODE     ---       #1346
      01000ED0H   LINE      CODE     ---       #1347
      01000ED2H   LINE      CODE     ---       #1348
      01000ED4H   LINE      CODE     ---       #1349
      01000ED9H   LINE      CODE     ---       #1350
      01000EDBH   LINE      CODE     ---       #1351
      01000EDDH   LINE      CODE     ---       #1352
      01000EDDH   LINE      CODE     ---       #1353
      01000EDDH   LINE      CODE     ---       #1354
      01000EDFH   LINE      CODE     ---       #1356
      01000EDFH   LINE      CODE     ---       #1357
      01000EE3H   LINE      CODE     ---       #1358
      01000EE8H   LINE      CODE     ---       #1359
      01000EE8H   LINE      CODE     ---       #1360
      01000EEAH   LINE      CODE     ---       #1361
      01000EEDH   LINE      CODE     ---       #1362
      01000EEFH   LINE      CODE     ---       #1363
      01000EEFH   LINE      CODE     ---       #1364
      01000EEFH   LINE      CODE     ---       #1368
      01000F1EH   LINE      CODE     ---       #1369
      01000F1EH   LINE      CODE     ---       #1370
      01000F2BH   LINE      CODE     ---       #1371
      01000F2BH   LINE      CODE     ---       #1372
      01000F2DH   LINE      CODE     ---       #1373
      01000F2FH   LINE      CODE     ---       #1374
      01000F34H   LINE      CODE     ---       #1375
      01000F36H   LINE      CODE     ---       #1376
      01000F38H   LINE      CODE     ---       #1377
      01000F38H   LINE      CODE     ---       #1379
      01000F3AH   LINE      CODE     ---       #1381
      01000F3AH   LINE      CODE     ---       #1382
      01000F3EH   LINE      CODE     ---       #1383
      01000F43H   LINE      CODE     ---       #1384
      01000F43H   LINE      CODE     ---       #1385
      01000F45H   LINE      CODE     ---       #1386
      01000F48H   LINE      CODE     ---       #1387
      01000F4AH   LINE      CODE     ---       #1388
      01000F4AH   LINE      CODE     ---       #1389
      01000F4AH   LINE      CODE     ---       #1394
      01000F79H   LINE      CODE     ---       #1395
      01000F79H   LINE      CODE     ---       #1396
LX51 LINKER/LOCATER V4.66.97.0                                                        04/04/2022  17:40:24  PAGE 27


      01000F86H   LINE      CODE     ---       #1397
      01000F86H   LINE      CODE     ---       #1398
      01000F88H   LINE      CODE     ---       #1399
      01000F8AH   LINE      CODE     ---       #1400
      01000F8FH   LINE      CODE     ---       #1401
      01000F91H   LINE      CODE     ---       #1402
      01000F93H   LINE      CODE     ---       #1403
      01000F93H   LINE      CODE     ---       #1405
      01000F95H   LINE      CODE     ---       #1407
      01000F95H   LINE      CODE     ---       #1408
      01000F99H   LINE      CODE     ---       #1409
      01000F9EH   LINE      CODE     ---       #1410
      01000F9EH   LINE      CODE     ---       #1411
      01000FA0H   LINE      CODE     ---       #1412
      01000FA3H   LINE      CODE     ---       #1413
      01000FA5H   LINE      CODE     ---       #1414
      01000FA5H   LINE      CODE     ---       #1415
      01000FA5H   LINE      CODE     ---       #1419
      01000FD4H   LINE      CODE     ---       #1420
      01000FD4H   LINE      CODE     ---       #1421
      01000FE1H   LINE      CODE     ---       #1422
      01000FE1H   LINE      CODE     ---       #1423
      01000FE3H   LINE      CODE     ---       #1424
      01000FE5H   LINE      CODE     ---       #1425
      01000FEAH   LINE      CODE     ---       #1426
      01000FECH   LINE      CODE     ---       #1427
      01000FEEH   LINE      CODE     ---       #1428
      01000FEEH   LINE      CODE     ---       #1430
      01000FF0H   LINE      CODE     ---       #1432
      01000FF0H   LINE      CODE     ---       #1433
      01000FF4H   LINE      CODE     ---       #1434
      01000FF9H   LINE      CODE     ---       #1435
      01000FF9H   LINE      CODE     ---       #1436
      01000FFBH   LINE      CODE     ---       #1437
      01000FFEH   LINE      CODE     ---       #1438
      01001000H   LINE      CODE     ---       #1439
      01001000H   LINE      CODE     ---       #1440
      01001000H   LINE      CODE     ---       #1444
      0100102FH   LINE      CODE     ---       #1445
      0100102FH   LINE      CODE     ---       #1446
      0100103CH   LINE      CODE     ---       #1447
      0100103CH   LINE      CODE     ---       #1448
      0100103EH   LINE      CODE     ---       #1449
      01001040H   LINE      CODE     ---       #1450
      01001045H   LINE      CODE     ---       #1451
      01001047H   LINE      CODE     ---       #1452
      01001049H   LINE      CODE     ---       #1453
      01001049H   LINE      CODE     ---       #1454
      0100104BH   LINE      CODE     ---       #1456
      0100104BH   LINE      CODE     ---       #1457
      0100104FH   LINE      CODE     ---       #1458
      01001054H   LINE      CODE     ---       #1459
      01001054H   LINE      CODE     ---       #1460
      01001056H   LINE      CODE     ---       #1461
      01001059H   LINE      CODE     ---       #1462
      0100105BH   LINE      CODE     ---       #1463
      0100105BH   LINE      CODE     ---       #1464
      0100105BH   LINE      CODE     ---       #1466
      0100108AH   LINE      CODE     ---       #1467
      0100108AH   LINE      CODE     ---       #1468
      01001097H   LINE      CODE     ---       #1469
      01001097H   LINE      CODE     ---       #1470
      01001099H   LINE      CODE     ---       #1471
      0100109BH   LINE      CODE     ---       #1472
      010010A0H   LINE      CODE     ---       #1473
LX51 LINKER/LOCATER V4.66.97.0                                                        04/04/2022  17:40:24  PAGE 28


      010010A2H   LINE      CODE     ---       #1474
      010010A4H   LINE      CODE     ---       #1475
      010010A4H   LINE      CODE     ---       #1476
      010010A6H   LINE      CODE     ---       #1478
      010010A6H   LINE      CODE     ---       #1479
      010010AAH   LINE      CODE     ---       #1480
      010010AFH   LINE      CODE     ---       #1481
      010010AFH   LINE      CODE     ---       #1482
      010010B1H   LINE      CODE     ---       #1483
      010010B4H   LINE      CODE     ---       #1484
      010010B6H   LINE      CODE     ---       #1485
      010010B6H   LINE      CODE     ---       #1486
      010010B6H   LINE      CODE     ---       #1487
      010010B6H   LINE      CODE     ---       #1489
      010010BBH   LINE      CODE     ---       #1490
      010010BEH   LINE      CODE     ---       #1492
      010010C3H   LINE      CODE     ---       #1493
      010010C6H   LINE      CODE     ---       #1494
      010010C6H   LINE      CODE     ---       #1497
      010010C9H   LINE      CODE     ---       #1498
      010010C9H   LINE      CODE     ---       #1499
      010010CCH   LINE      CODE     ---       #1500
      010010CCH   LINE      CODE     ---       #1501
      010010CEH   LINE      CODE     ---       #1502
      010010D0H   LINE      CODE     ---       #1503
      010010D0H   LINE      CODE     ---       #1505
      010010D4H   LINE      CODE     ---       #1507
      010010D9H   LINE      CODE     ---       #1508
      010010DCH   LINE      CODE     ---       #1509
      010010E0H   LINE      CODE     ---       #1511
      010010E2H   LINE      CODE     ---       #1513
      010010E4H   LINE      CODE     ---       #1515
      010010E4H   LINE      CODE     ---       #1516
      010010E6H   LINE      CODE     ---       #1517
      010010FDH   LINE      CODE     ---       #1518
      010010FDH   LINE      CODE     ---       #1519
      010010FFH   LINE      CODE     ---       #1520
      010010FFH   LINE      CODE     ---       #1521
      010010FFH   LINE      CODE     ---       #1523
      0100110EH   LINE      CODE     ---       #1524
      0100110EH   LINE      CODE     ---       #1525
      01001113H   LINE      CODE     ---       #1526
      0100111CH   LINE      CODE     ---       #1527
      0100111CH   LINE      CODE     ---       #1528
      0100111EH   LINE      CODE     ---       #1529
      01001120H   LINE      CODE     ---       #1530
      01001124H   LINE      CODE     ---       #1531
      01001124H   LINE      CODE     ---       #1532
      01001126H   LINE      CODE     ---       #1534
      01001126H   LINE      CODE     ---       #1535
      0100112AH   LINE      CODE     ---       #1536
      01001139H   LINE      CODE     ---       #1537
      0100113BH   LINE      CODE     ---       #1538
      0100113BH   LINE      CODE     ---       #1540
      0100113EH   LINE      CODE     ---       #1541
      0100113EH   LINE      CODE     ---       #1542
      0100114AH   LINE      CODE     ---       #1543
      0100114DH   LINE      CODE     ---       #1544
      0100114FH   LINE      CODE     ---       #1546
      01001153H   LINE      CODE     ---       #1548
      01001156H   LINE      CODE     ---       #1549
      01001156H   LINE      CODE     ---       #1550
      01001162H   LINE      CODE     ---       #1551
      01001165H   LINE      CODE     ---       #1552
      01001167H   LINE      CODE     ---       #1554
LX51 LINKER/LOCATER V4.66.97.0                                                        04/04/2022  17:40:24  PAGE 29


      0100116BH   LINE      CODE     ---       #1556
      01001178H   LINE      CODE     ---       #1557
      01001178H   LINE      CODE     ---       #1558
      0100117BH   LINE      CODE     ---       #1559
      01001180H   LINE      CODE     ---       #1560
      01001181H   LINE      CODE     ---       #1562
      01001181H   LINE      CODE     ---       #1564
      01001186H   LINE      CODE     ---       #1565
      0100118BH   LINE      CODE     ---       #1567
      0100118DH   LINE      CODE     ---       #1569
      01001193H   LINE      CODE     ---       #1570
      01001193H   LINE      CODE     ---       #1571
      01001197H   LINE      CODE     ---       #1572
      0100119AH   LINE      CODE     ---       #1573
      0100119DH   LINE      CODE     ---       #1574
      010011A0H   LINE      CODE     ---       #1575
      010011A0H   LINE      CODE     ---       #1576
      010011A4H   LINE      CODE     ---       #1577
      010011A4H   LINE      CODE     ---       #1578
      010011A6H   LINE      CODE     ---       #1580
      010011A6H   LINE      CODE     ---       #1581
      010011AAH   LINE      CODE     ---       #1582
      010011ADH   LINE      CODE     ---       #1583
      010011ADH   LINE      CODE     ---       #1584
      010011BDH   LINE      CODE     ---       #1585
      010011BDH   LINE      CODE     ---       #1586
      010011C3H   LINE      CODE     ---       #1587
      010011C3H   LINE      CODE     ---       #1588
      010011C5H   LINE      CODE     ---       #1589
      010011C7H   LINE      CODE     ---       #1590
      010011C7H   LINE      CODE     ---       #1592
      010011CBH   LINE      CODE     ---       #1593
      010011D7H   LINE      CODE     ---       #1594
      010011D7H   LINE      CODE     ---       #1595
      010011DDH   LINE      CODE     ---       #1596
      010011DDH   LINE      CODE     ---       #1597
      010011DFH   LINE      CODE     ---       #1598
      010011E1H   LINE      CODE     ---       #1599
      010011E1H   LINE      CODE     ---       #1600
      010011E1H   LINE      CODE     ---       #1602
      010011E8H   LINE      CODE     ---       #1604
      010011E8H   LINE      CODE     ---       #1605
      010011ECH   LINE      CODE     ---       #1606
      010011EEH   LINE      CODE     ---       #1607
      010011F0H   LINE      CODE     ---       #1608
      010011F3H   LINE      CODE     ---       #1609
      010011FFH   LINE      CODE     ---       #1610
      010011FFH   LINE      CODE     ---       #1611
      01001205H   LINE      CODE     ---       #1612
      01001205H   LINE      CODE     ---       #1613
      01001207H   LINE      CODE     ---       #1614
      01001207H   LINE      CODE     ---       #1615
      01001207H   LINE      CODE     ---       #1616
      01001207H   LINE      CODE     ---       #1618
      01001207H   LINE      CODE     ---       #1619
      0100120BH   LINE      CODE     ---       #1620
      0100120EH   LINE      CODE     ---       #1623
      01001210H   LINE      CODE     ---       #1624
      01001212H   LINE      CODE     ---       #1625
      01001216H   LINE      CODE     ---       #1626
      01001219H   LINE      CODE     ---       #1627
      0100121BH   LINE      CODE     ---       #1628
      0100121BH   LINE      CODE     ---       #1629
      0100121BH   LINE      CODE     ---       #1630
      0100121BH   LINE      CODE     ---       #1631
LX51 LINKER/LOCATER V4.66.97.0                                                        04/04/2022  17:40:24  PAGE 30


      ---         BLOCKEND  ---      ---       LVL=0

      01000086H   BLOCK     CODE     ---       LVL=0
      01000086H   BLOCK     CODE     NEAR LAB  LVL=1
      00000003H   SYMBOL    DATA     BYTE      ADtemp
      ---         BLOCKEND  ---      ---       LVL=1
      01000086H   LINE      CODE     ---       #1635
      01000086H   LINE      CODE     ---       #1636
      01000086H   LINE      CODE     ---       #1639
      01000088H   LINE      CODE     ---       #1640
      0100008AH   LINE      CODE     ---       #1642
      01000095H   LINE      CODE     ---       #1643
      01000095H   LINE      CODE     ---       #1644
      01000098H   LINE      CODE     ---       #1645
      010000AAH   LINE      CODE     ---       #1646
      010000ACH   LINE      CODE     ---       #1647
      010000AEH   LINE      CODE     ---       #1648
      010000B0H   LINE      CODE     ---       #1651
      010000BCH   LINE      CODE     ---       #1652
      010000C1H   LINE      CODE     ---       #1653
      010000CEH   LINE      CODE     ---       #1654
      010000CEH   LINE      CODE     ---       #1656
      010000D0H   LINE      CODE     ---       #1657
      010000E2H   LINE      CODE     ---       #1658
      010000E8H   LINE      CODE     ---       #1662
      010000F4H   LINE      CODE     ---       #1663
      010000F8H   LINE      CODE     ---       #1665
      0100010DH   LINE      CODE     ---       #1666
      0100010DH   LINE      CODE     ---       #1668
      01000112H   LINE      CODE     ---       #1669
      01000116H   LINE      CODE     ---       #1670
      01000122H   LINE      CODE     ---       #1671
      01000124H   LINE      CODE     ---       #1672
      01000126H   LINE      CODE     ---       #1674
      01000126H   LINE      CODE     ---       #1675
      0100012AH   LINE      CODE     ---       #1676
      0100012FH   LINE      CODE     ---       #1677
      01000139H   LINE      CODE     ---       #1678
      0100013BH   LINE      CODE     ---       #1679
      0100013BH   LINE      CODE     ---       #1681
      0100014DH   LINE      CODE     ---       #1682
      0100014DH   LINE      CODE     ---       #1683
      01000152H   LINE      CODE     ---       #1684
      01000156H   LINE      CODE     ---       #1685
      01000162H   LINE      CODE     ---       #1686
      01000164H   LINE      CODE     ---       #1687
      01000166H   LINE      CODE     ---       #1689
      01000166H   LINE      CODE     ---       #1690
      0100016BH   LINE      CODE     ---       #1691
      01000175H   LINE      CODE     ---       #1692
      01000175H   LINE      CODE     ---       #1693
      01000177H   LINE      CODE     ---       #1694
      0100017BH   LINE      CODE     ---       #1695
      0100017BH   LINE      CODE     ---       #1696
      0100017BH   LINE      CODE     ---       #1718
      0100018DH   LINE      CODE     ---       #1719
      0100018DH   LINE      CODE     ---       #1720
      0100018FH   LINE      CODE     ---       #1721
      01000194H   LINE      CODE     ---       #1722
      01000198H   LINE      CODE     ---       #1726
      0100019DH   LINE      CODE     ---       #1728
      0100019FH   LINE      CODE     ---       #1729
      010001A1H   LINE      CODE     ---       #1730
      010001A3H   LINE      CODE     ---       #1732
      010001A3H   LINE      CODE     ---       #1733
LX51 LINKER/LOCATER V4.66.97.0                                                        04/04/2022  17:40:24  PAGE 31


      010001A7H   LINE      CODE     ---       #1734
      010001ACH   LINE      CODE     ---       #1735
      010001BBH   LINE      CODE     ---       #1736
      010001BBH   LINE      CODE     ---       #1737
      010001BDH   LINE      CODE     ---       #1738
      010001C0H   LINE      CODE     ---       #1739
      010001C2H   LINE      CODE     ---       #1740
      010001C2H   LINE      CODE     ---       #1742
      010001C2H   LINE      CODE     ---       #1746
      010001CEH   LINE      CODE     ---       #1747
      010001CEH   LINE      CODE     ---       #1749
      010001D3H   LINE      CODE     ---       #1750
      010001D7H   LINE      CODE     ---       #1751
      010001E3H   LINE      CODE     ---       #1752
      010001E5H   LINE      CODE     ---       #1753
      010001E7H   LINE      CODE     ---       #1755
      010001E7H   LINE      CODE     ---       #1756
      010001EBH   LINE      CODE     ---       #1757
      010001F0H   LINE      CODE     ---       #1758
      010001FAH   LINE      CODE     ---       #1759
      010001FCH   LINE      CODE     ---       #1760
      010001FCH   LINE      CODE     ---       #1762
      01000205H   LINE      CODE     ---       #1763
      01000205H   LINE      CODE     ---       #1765
      0100020AH   LINE      CODE     ---       #1766
      0100020EH   LINE      CODE     ---       #1767
      0100021AH   LINE      CODE     ---       #1768
      0100021CH   LINE      CODE     ---       #1769
      0100021EH   LINE      CODE     ---       #1771
      0100021EH   LINE      CODE     ---       #1773
      01000222H   LINE      CODE     ---       #1774
      01000227H   LINE      CODE     ---       #1775
      01000231H   LINE      CODE     ---       #1776
      01000233H   LINE      CODE     ---       #1777
      01000233H   LINE      CODE     ---       #1780
      0100023EH   LINE      CODE     ---       #1781
      0100023EH   LINE      CODE     ---       #1783
      01000243H   LINE      CODE     ---       #1784
      01000247H   LINE      CODE     ---       #1785
      01000256H   LINE      CODE     ---       #1786
      01000258H   LINE      CODE     ---       #1787
      01000259H   LINE      CODE     ---       #1789
      01000259H   LINE      CODE     ---       #1791
      0100025DH   LINE      CODE     ---       #1792
      01000262H   LINE      CODE     ---       #1793
      0100026FH   LINE      CODE     ---       #1794
      01000271H   LINE      CODE     ---       #1795
      01000271H   LINE      CODE     ---       #1797
      01000271H   LINE      CODE     ---       #1798
      01000272H   LINE      CODE     ---       #1800
      0100027AH   LINE      CODE     ---       #1801
      0100027AH   LINE      CODE     ---       #1802
      0100027FH   LINE      CODE     ---       #1803
      01000294H   LINE      CODE     ---       #1804
      01000296H   LINE      CODE     ---       #1805
      01000298H   LINE      CODE     ---       #1806
      0100029AH   LINE      CODE     ---       #1811
      010002A7H   LINE      CODE     ---       #1812
      010002A7H   LINE      CODE     ---       #1813
      010002A9H   LINE      CODE     ---       #1814
      010002A9H   LINE      CODE     ---       #1816
      010002B7H   LINE      CODE     ---       #1817
      010002B7H   LINE      CODE     ---       #1819
      010002BBH   LINE      CODE     ---       #1822
      010002C6H   LINE      CODE     ---       #1823
LX51 LINKER/LOCATER V4.66.97.0                                                        04/04/2022  17:40:24  PAGE 32


      010002C6H   LINE      CODE     ---       #1826
      010002C9H   LINE      CODE     ---       #1827
      010002C9H   LINE      CODE     ---       #1828
      010002CEH   LINE      CODE     ---       #1829
      010002D0H   LINE      CODE     ---       #1831
      010002D7H   LINE      CODE     ---       #1832
      010002D9H   LINE      CODE     ---       #1833
      010002D9H   LINE      CODE     ---       #1836
      010002D9H   LINE      CODE     ---       #1837
      010002DDH   LINE      CODE     ---       #1838
      010002E6H   LINE      CODE     ---       #1839
      010002E8H   LINE      CODE     ---       #1841
      010002F2H   LINE      CODE     ---       #1842
      01000305H   LINE      CODE     ---       #1844
      0100030FH   LINE      CODE     ---       #1846
      01000322H   LINE      CODE     ---       #1848
      0100032CH   LINE      CODE     ---       #1849
      01000331H   LINE      CODE     ---       #1852
      01000339H   LINE      CODE     ---       #1853
      0100034CH   LINE      CODE     ---       #1855
      01000352H   LINE      CODE     ---       #1857
      01000353H   LINE      CODE     ---       #1859
      01000353H   LINE      CODE     ---       #1860
      0100035DH   LINE      CODE     ---       #1861
      0100035DH   LINE      CODE     ---       #1862
      01000361H   LINE      CODE     ---       #1863
      01000363H   LINE      CODE     ---       #1864
      01000371H   LINE      CODE     ---       #1865
      01000371H   LINE      CODE     ---       #1866
      01000377H   LINE      CODE     ---       #1867
      01000379H   LINE      CODE     ---       #1869
      0100037BH   LINE      CODE     ---       #1870
      0100037DH   LINE      CODE     ---       #1871
      01000381H   LINE      CODE     ---       #1872
      01000383H   LINE      CODE     ---       #1873
      01000385H   LINE      CODE     ---       #1875
      01000385H   LINE      CODE     ---       #1876
      01000386H   LINE      CODE     ---       #1878
      01000386H   LINE      CODE     ---       #1879
      01000388H   LINE      CODE     ---       #1880
      01000388H   LINE      CODE     ---       #1882
      01000388H   LINE      CODE     ---       #1884
      01000389H   LINE      CODE     ---       #1886
      01000393H   LINE      CODE     ---       #1887
      01000393H   LINE      CODE     ---       #1888
      01000396H   LINE      CODE     ---       #1889
      010003ABH   LINE      CODE     ---       #1890
      010003ADH   LINE      CODE     ---       #1891
      010003AFH   LINE      CODE     ---       #1892
      010003B1H   LINE      CODE     ---       #1893
      010003B5H   LINE      CODE     ---       #1894
      010003C0H   LINE      CODE     ---       #1895
      010003C5H   LINE      CODE     ---       #1896
      010003CFH   LINE      CODE     ---       #1897
      010003CFH   LINE      CODE     ---       #1898
      010003D1H   LINE      CODE     ---       #1899
      010003E3H   LINE      CODE     ---       #1900
      010003E6H   LINE      CODE     ---       #1901
      010003E6H   LINE      CODE     ---       #1903
      010003E8H   LINE      CODE     ---       #1905
      010003EEH   LINE      CODE     ---       #1906
      010003EEH   LINE      CODE     ---       #1907
      010003F3H   LINE      CODE     ---       #1908
      01000408H   LINE      CODE     ---       #1909
      0100040AH   LINE      CODE     ---       #1910
LX51 LINKER/LOCATER V4.66.97.0                                                        04/04/2022  17:40:24  PAGE 33


      0100040CH   LINE      CODE     ---       #1911
      0100040EH   LINE      CODE     ---       #1914
      0100041AH   LINE      CODE     ---       #1915
      0100041FH   LINE      CODE     ---       #1916
      01000422H   LINE      CODE     ---       #1917
      01000422H   LINE      CODE     ---       #1919
      01000423H   LINE      CODE     ---       #1920
      01000429H   LINE      CODE     ---       #1921
      0100042FH   LINE      CODE     ---       #1922
      0100042FH   LINE      CODE     ---       #1924
      0100042FH   LINE      CODE     ---       #1926
      ---         BLOCKEND  ---      ---       LVL=0

      01000698H   BLOCK     CODE     ---       LVL=0
      01000698H   LINE      CODE     ---       #1928
      01000698H   LINE      CODE     ---       #1929
      01000698H   LINE      CODE     ---       #1930
      0100069BH   LINE      CODE     ---       #1931
      0100069BH   LINE      CODE     ---       #1932
      0100069DH   LINE      CODE     ---       #1934
      010006A0H   LINE      CODE     ---       #1935
      010006A0H   LINE      CODE     ---       #1936
      010006A3H   LINE      CODE     ---       #1937
      010006A3H   LINE      CODE     ---       #1938
      010006A6H   LINE      CODE     ---       #1939
      010006A6H   LINE      CODE     ---       #1940
      010006ABH   LINE      CODE     ---       #1941
      010006B5H   LINE      CODE     ---       #1942
      010006B5H   LINE      CODE     ---       #1943
      010006B8H   LINE      CODE     ---       #1944
      010006B8H   LINE      CODE     ---       #1945
      010006BAH   LINE      CODE     ---       #1946
      010006BDH   LINE      CODE     ---       #1947
      010006BDH   LINE      CODE     ---       #1948
      010006BDH   LINE      CODE     ---       #1949
      010006BDH   LINE      CODE     ---       #1950
      010006BDH   LINE      CODE     ---       #1951
      010006BDH   LINE      CODE     ---       #1953
      010006C0H   LINE      CODE     ---       #1954
      010006C0H   LINE      CODE     ---       #1956
      010006C4H   LINE      CODE     ---       #1957
      010006C9H   LINE      CODE     ---       #1959
      010006D3H   LINE      CODE     ---       #1960
      010006D3H   LINE      CODE     ---       #1961
      010006D5H   LINE      CODE     ---       #1962
      010006D7H   LINE      CODE     ---       #1963
      010006D7H   LINE      CODE     ---       #1966
      010006DAH   LINE      CODE     ---       #1967
      010006DAH   LINE      CODE     ---       #1968
      010006DDH   LINE      CODE     ---       #1969
      010006DDH   LINE      CODE     ---       #1970
      010006E2H   LINE      CODE     ---       #1972
      010006ECH   LINE      CODE     ---       #1973
      010006ECH   LINE      CODE     ---       #1974
      010006EEH   LINE      CODE     ---       #1975
      010006F3H   LINE      CODE     ---       #1976
      010006FCH   LINE      CODE     ---       #1977
      010006FCH   LINE      CODE     ---       #1978
      010006FEH   LINE      CODE     ---       #1979
      01000703H   LINE      CODE     ---       #1980
      0100070CH   LINE      CODE     ---       #1981
      0100070CH   LINE      CODE     ---       #1982
      0100070EH   LINE      CODE     ---       #1983
      0100070EH   LINE      CODE     ---       #1984
      0100070EH   LINE      CODE     ---       #1985
LX51 LINKER/LOCATER V4.66.97.0                                                        04/04/2022  17:40:24  PAGE 34


      0100070EH   LINE      CODE     ---       #1986
      0100070EH   LINE      CODE     ---       #1987
      0100070FH   LINE      CODE     ---       #1989
      0100070FH   LINE      CODE     ---       #1990
      01000713H   LINE      CODE     ---       #1991
      01000716H   LINE      CODE     ---       #1992
      01000719H   LINE      CODE     ---       #1993
      01000719H   LINE      CODE     ---       #1994
      01000719H   LINE      CODE     ---       #1995
      01000719H   LINE      CODE     ---       #1996
      ---         BLOCKEND  ---      ---       LVL=0

      0100076FH   BLOCK     CODE     ---       LVL=0
      0100076FH   LINE      CODE     ---       #2000
      0100076FH   LINE      CODE     ---       #2001
      0100076FH   LINE      CODE     ---       #2002
      01000772H   LINE      CODE     ---       #2003
      01000772H   LINE      CODE     ---       #2004
      01000772H   LINE      CODE     ---       #2006
      01000775H   LINE      CODE     ---       #2007
      01000778H   LINE      CODE     ---       #2008
      0100077BH   LINE      CODE     ---       #2009
      0100078EH   LINE      CODE     ---       #2010
      010007A1H   LINE      CODE     ---       #2011
      010007A4H   LINE      CODE     ---       #2013
      010007A7H   LINE      CODE     ---       #2014
      010007AAH   LINE      CODE     ---       #2015
      010007ADH   LINE      CODE     ---       #2017
      010007B0H   LINE      CODE     ---       #2019
      010007B3H   LINE      CODE     ---       #2020
      010007B6H   LINE      CODE     ---       #2021
      010007B9H   LINE      CODE     ---       #2022
      010007BCH   LINE      CODE     ---       #2023
      ---         BLOCKEND  ---      ---       LVL=0

      0100121CH   BLOCK     CODE     ---       LVL=0
      0100121CH   LINE      CODE     ---       #2027
      01001227H   LINE      CODE     ---       #2029
      0100122EH   LINE      CODE     ---       #2030
      0100122EH   LINE      CODE     ---       #2031
      01001231H   LINE      CODE     ---       #2032
      01001234H   LINE      CODE     ---       #2033
      01001234H   LINE      CODE     ---       #2034
      01001239H   LINE      CODE     ---       #2035
      0100123BH   LINE      CODE     ---       #2036
      0100123DH   LINE      CODE     ---       #2037
      0100123FH   LINE      CODE     ---       #2038
      01001242H   LINE      CODE     ---       #2039
      01001245H   LINE      CODE     ---       #2040
      01001247H   LINE      CODE     ---       #2041
      01001249H   LINE      CODE     ---       #2042
      0100124BH   LINE      CODE     ---       #2043
      0100124DH   LINE      CODE     ---       #2044
      0100124FH   LINE      CODE     ---       #2046
      01001253H   LINE      CODE     ---       #2049
      01001255H   LINE      CODE     ---       #2051
      01001257H   LINE      CODE     ---       #2052
      01001257H   LINE      CODE     ---       #2053
      0100125AH   LINE      CODE     ---       #2054
      0100125AH   LINE      CODE     ---       #2055
      ---         BLOCKEND  ---      ---       LVL=0

      ---         MODULE    ---      ---       ?C_INIT
      01001883H   PUBLIC    CODE     ---       ?C_START

LX51 LINKER/LOCATER V4.66.97.0                                                        04/04/2022  17:40:24  PAGE 35


      ---         MODULE    ---      ---       ?C?UIDIV
      0100071AH   PUBLIC    CODE     ---       ?C?UIDIV

******************************************************************************
* RESTRICTED VERSION WITH 0800H BYTE CODE SIZE LIMIT; USED: 11B3H BYTE (221%) *
******************************************************************************

Program Size: data=16.1 xdata=94 const=0 code=4745
*** ERROR L250: CODE SIZE LIMIT IN RESTRICTED VERSION EXCEEDED
    LIMIT:   0800H BYTES
