LX51 LINKER/LOCATER V4.41                                                               04/26/2021  20:34:38  PAGE 1


LX51 LINKER/LOCATER V4.41, INVOKED BY:
D:\KEIL5 FOR ARM\C51\BIN\LX51.EXE STARTUP.obj, MAIN.obj TO M92_N76E003


CPU MODE:     8051 MODE
MEMORY MODEL: SMALL


INPUT MODULES INCLUDED:
  STARTUP.obj (?C_STARTUP)
         COMMENT TYPE 0: AX51 V3.07
  MAIN.obj (MAIN)
         COMMENT TYPE 0: C51 V9.01
  D:\KEIL5 FOR ARM\C51\LIB\C51S.LIB (?C_INIT)
         COMMENT TYPE 1: A51 / ASM51 Assembler
  D:\KEIL5 FOR ARM\C51\LIB\C51S.LIB (?C?UIDIV)
         COMMENT TYPE 1: A51 / ASM51 Assembler


ACTIVE MEMORY CLASSES OF MODULE:  M92_N76E003 (?C_STARTUP)

BASE        START       END         USED      MEMORY CLASS
==========================================================
C:000000H   C:000000H   C:00FFFFH   000CDDH   CODE
I:000000H   I:000000H   I:0000FFH   000001H   IDATA
I:000020H.0 I:000020H.0 I:00002FH.7 000005H.4 BIT
I:000000H   I:000000H   I:00007FH   000062H   DATA


MEMORY MAP OF MODULE:  M92_N76E003 (?C_STARTUP)


START     STOP      LENGTH    ALIGN  RELOC    MEMORY CLASS   SEGMENT NAME
=========================================================================

* * * * * * * * * * *   D A T A   M E M O R Y   * * * * * * * * * * * * *
000000H   000007H   000008H   ---    AT..     DATA           "REG BANK 0"
000008H.0 00001FH.7 000018H.0 ---    ---      **GAP**
000020H.0 000025H.3 000005H.4 BIT    UNIT     BIT            ?BI?MAIN
000025H.4 000025H   000000H.4 ---    ---      **GAP**
000026H   00007FH   00005AH   BYTE   UNIT     DATA           ?DT?MAIN
000080H   000080H   000001H   BYTE   UNIT     IDATA          ?STACK

* * * * * * * * * * *   C O D E   M E M O R Y   * * * * * * * * * * * * *
000000H   000002H   000003H   ---    OFFS..   CODE           ?CO?STARTUP?3
000003H   00002EH   00002CH   BYTE   UNIT     CODE           ?PR?INIT_ISR?MAIN
00002FH   000035H   000007H   BYTE   UNIT     CODE           ?C_INITSEG
000036H   00003AH   000005H   ---    ---      **GAP**
00003BH   00003DH   000003H   BYTE   OFFS..   CODE           ?MAIN?0003B
00003EH   000060H   000023H   BYTE   UNIT     CODE           ?PR?_PWM_DEAD_TIME_VALUE?MAIN
000061H   000070H   000010H   BYTE   UNIT     CODE           ?PR?TIMER3_ISR?MAIN
000071H   000082H   000012H   ---    ---      **GAP**
000083H   000085H   000003H   BYTE   OFFS..   CODE           ?MAIN?00083
000086H   0006B3H   00062EH   BYTE   UNIT     CODE           ?PR?TIME_DSP?MAIN
0006B4H   00099EH   0002EBH   BYTE   UNIT     CODE           ?PR?ADC_DSP?MAIN
00099FH   000AADH   00010FH   BYTE   UNIT     CODE           ?PR?INIT?MAIN
000AAEH   000BB8H   00010BH   BYTE   UNIT     CODE           ?PR?MOVECTRL?MAIN
000BB9H   000C52H   00009AH   BYTE   UNIT     CODE           ?C_C51STARTUP
000C53H   000CA7H   000055H   BYTE   UNIT     CODE           ?C?LIB_CODE
000CA8H   000CF3H   00004CH   BYTE   UNIT     CODE           ?PR?MAIN?MAIN



OVERLAY MAP OF MODULE:   M92_N76E003 (?C_STARTUP)


LX51 LINKER/LOCATER V4.41                                                             04/26/2021  20:34:38  PAGE 2


FUNCTION/MODULE                 BIT_GROUP   DATA_GROUP 
--> CALLED FUNCTION/MODULE     START  STOP  START  STOP
=======================================================
?C_C51STARTUP                  ----- -----  ----- -----
  +--> ?PR?MAIN?MAIN
  +--> ?C_INITSEG

MAIN/MAIN                      ----- -----  ----- -----
  +--> ?PR?INIT?MAIN
  +--> ?PR?TIME_DSP?MAIN
  +--> ?PR?MOVECTRL?MAIN
  +--> ?PR?ADC_DSP?MAIN

INIT/MAIN                      ----- -----  ----- -----
  +--> ?PR?_PWM_DEAD_TIME_VALUE?MAIN

_PWM_DEAD_TIME_VALUE/MAIN      ----- -----  ----- -----

TIME_DSP/MAIN                  ----- -----  ----- -----
  +--> ?PR?MOVECTRL?MAIN

MOVECTRL/MAIN                  ----- -----  ----- -----

ADC_DSP/MAIN                   ----- -----  ----- -----

?C_INITSEG                     ----- -----  ----- -----

*** NEW ROOT *****************

TIMER3_ISR/MAIN                ----- -----  ----- -----

*** NEW ROOT *****************

INIT_ISR/MAIN                  ----- -----  ----- -----



PUBLIC SYMBOLS OF MODULE:  M92_N76E003 (?C_STARTUP)


      VALUE       CLASS    TYPE      PUBLIC SYMBOL NAME
      =================================================
      00000000H   NUMBER   ---       ?C?CODESEG
      01000C53H   CODE     ---       ?C?UIDIV
      00000000H   NUMBER   ---       ?C?XDATASEG
      01000C0EH   CODE     ---       ?C_START
      01000000H   CODE     NEAR LAB  ?C_STARTUP
      0100003EH   CODE     ---       _PWM_DEAD_TIME_VALUE
      00000024H.7 BIT      BIT       A_DET_FL
      00000020H.1 BIT      BIT       A_DET_Old
      0000002AH   DATA     BYTE      A_DET_same
*SFR* 000000C0H.2 DATA     BIT       AA
*SFR* 000000D0H.6 DATA     BIT       AC
*SFR* 000000E0H   DATA     BYTE      ACC
      00000075H   DATA     BYTE      AD_CH
      0000006DH   DATA     BYTE      AD_Max_Index
      0000006CH   DATA     BYTE      AD_Min_Index
      010006B4H   CODE     ---       ADC_DSP
*SFR* 000000E8H   DATA     BYTE      ADCCON0
*SFR* 000000E1H   DATA     BYTE      ADCCON1
*SFR* 000000E2H   DATA     BYTE      ADCCON2
*SFR* 000000E3H   DATA     BYTE      ADCDLY
*SFR* 000000E8H.7 DATA     BIT       ADCF
*SFR* 000000E8H   DATA     BIT       ADCHS0
*SFR* 000000E8H.1 DATA     BIT       ADCHS1
LX51 LINKER/LOCATER V4.41                                                             04/26/2021  20:34:38  PAGE 3


*SFR* 000000E8H.2 DATA     BIT       ADCHS2
*SFR* 000000E8H.3 DATA     BIT       ADCHS3
*SFR* 000000CFH   DATA     BYTE      ADCMPH
*SFR* 000000CEH   DATA     BYTE      ADCMPL
*SFR* 000000C3H   DATA     BYTE      ADCRH
*SFR* 000000C2H   DATA     BYTE      ADCRL
*SFR* 000000E8H.6 DATA     BIT       ADCS
*SFR* 000000F6H   DATA     BYTE      AINDIDS
*SFR* 000000A2H   DATA     BYTE      AUXR1
*SFR* 000000F0H   DATA     BYTE      B
      00000020H.2 BIT      BIT       BACK_FL
      00000069H   DATA     BYTE      BackOFFTime
      00000034H   DATA     BYTE      BeginMoveBackTM
      00000044H   DATA     BYTE      BeginMoveFrontTM
      00000023H.0 BIT      BIT       BIT_TMP
*SFR* 000000A3H   DATA     BYTE      BODCON0
*SFR* 000000ABH   DATA     BYTE      BODCON1
*SFR* 000000E5H   DATA     BYTE      C0H
*SFR* 000000E4H   DATA     BYTE      C0L
*SFR* 000000E7H   DATA     BYTE      C1H
*SFR* 000000E6H   DATA     BYTE      C1L
*SFR* 000000EEH   DATA     BYTE      C2H
*SFR* 000000EDH   DATA     BYTE      C2L
*SFR* 00000092H   DATA     BYTE      CAPCON0
*SFR* 00000093H   DATA     BYTE      CAPCON1
*SFR* 00000094H   DATA     BYTE      CAPCON2
*SFR* 000000F1H   DATA     BYTE      CAPCON3
*SFR* 000000F2H   DATA     BYTE      CAPCON4
      00000020H.4 BIT      BIT       ceshi_zhengchang_FL
      00000022H.0 BIT      BIT       CHANGE
      00000021H.4 BIT      BIT       CHANGE_FL
      0000003FH   DATA     BYTE      CHANGE_Off_TM
*SFR* 0000009FH   DATA     BYTE      CHPCON
*SFR* 0000008EH   DATA     BYTE      CKCON
*SFR* 00000095H   DATA     BYTE      CKDIV
*SFR* 00000097H   DATA     BYTE      CKEN
*SFR* 00000096H   DATA     BYTE      CKSWT
*SFR* 000000D8H.4 DATA     BIT       CLRPWM
*SFR* 000000C8H   DATA     BIT       CM_RL2
      00000032H   DATA     BYTE      Count1S
      00000076H   DATA     BYTE      Count2_5MS
      00000052H   DATA     WORD      count_500US_CT
      0000004EH   DATA     BYTE      Cur_ResultNew
      00000055H   DATA     BYTE      CurDanWei_AD
*SFR* 000000D0H.7 DATA     BIT       CY
      0000004DH   DATA     BYTE      DanWei
      00000035H   DATA     BYTE      DanWei_AD
      00000033H   DATA     BYTE      DanWei_PWM
      00000045H   DATA     BYTE      DelayOffTM
*SFR* 00000083H   DATA     BYTE      DPH
*SFR* 00000082H   DATA     BYTE      DPL
*SFR* 000000A8H.7 DATA     BIT       EA
*SFR* 000000A8H.6 DATA     BIT       EADC
*SFR* 000000A8H.5 DATA     BIT       EBOD
*SFR* 0000009BH   DATA     BYTE      EIE
*SFR* 0000009CH   DATA     BYTE      EIE1
*SFR* 000000EFH   DATA     BYTE      EIP
*SFR* 000000FEH   DATA     BYTE      EIP1
*SFR* 000000F7H   DATA     BYTE      EIPH
*SFR* 000000FFH   DATA     BYTE      EIPH1
      0000003BH   DATA     BYTE      ELE12_BIG_ct
      00000022H.4 BIT      BIT       ELE12_BIG_ERR_FL
      00000023H.7 BIT      BIT       ELE12_BIG_FL
      00000073H   DATA     BYTE      ELE12_BIG_TM
      00000058H   DATA     BYTE      ELE12_Small_ct
LX51 LINKER/LOCATER V4.41                                                             04/26/2021  20:34:38  PAGE 4


      00000040H   DATA     BYTE      ELE13_BIG_ct
      00000024H.0 BIT      BIT       ELE13_BIG_FL
      00000074H   DATA     BYTE      ELE13_BIG_TM
      0000005CH   DATA     BYTE      ELE13_Small_ct
      00000022H.6 BIT      BIT       ELE18_BIG_ERR_FL
      00000079H   DATA     BYTE      ELE18_BIG_TM
      00000022H.2 BIT      BIT       ELE20_BIG_ERR_FL
      00000071H   DATA     BYTE      ELE20_BIG_TM
      00000043H   DATA     BYTE      ELE28_BIG_ct
      00000022H.7 BIT      BIT       ELE28_BIG_ERR_FL
      00000024H.3 BIT      BIT       ELE28_BIG_FL
      0000007AH   DATA     BYTE      ELE28_BIG_TM
      00000061H   DATA     BYTE      ELE28_Small_ct
      0000003AH   DATA     BYTE      ELE30_BIG_ct
      00000022H.3 BIT      BIT       ELE30_BIG_ERR_FL
      00000023H.6 BIT      BIT       ELE30_BIG_FL
      00000072H   DATA     BYTE      ELE30_BIG_TM
      00000057H   DATA     BYTE      ELE30_Small_ct
      00000041H   DATA     BYTE      ELE40_BIG_ct
      00000024H.1 BIT      BIT       ELE40_BIG_FL
      0000005DH   DATA     BYTE      ELE40_Small_ct
      00000042H   DATA     BYTE      ELE50_BIG_ct
      00000024H.2 BIT      BIT       ELE50_BIG_FL
      0000005EH   DATA     BYTE      ELE50_Small_ct
      00000051H   DATA     BYTE      ELE_BIG_ct
      00000025H.1 BIT      BIT       ELE_BIG_FL
      0000002CH   DATA     BYTE      ELE_BIG_SET1
      0000002DH   DATA     BYTE      ELE_BIG_SET2
      0000002EH   DATA     BYTE      ELE_BIG_SET3
      00000030H   DATA     BYTE      ELE_BIG_TM
      00000021H.0 BIT      BIT       ELE_ERR_FL
      00000050H   DATA     BYTE      ELE_InterruptDISP_TM
      0000004AH   DATA     BYTE      ELE_set0
      0000006EH   DATA     BYTE      ELE_Small_ct
      00000062H   DATA     BYTE      ELE_Wait_5s
*SFR* 000000A8H.4 DATA     BIT       ES
*SFR* 000000A8H.1 DATA     BIT       ET0
*SFR* 000000A8H.3 DATA     BIT       ET1
*SFR* 000000E8H.4 DATA     BIT       ETGSEL0
*SFR* 000000E8H.5 DATA     BIT       ETGSEL1
*SFR* 000000A8H   DATA     BIT       EX0
*SFR* 000000A8H.2 DATA     BIT       EX1
*SFR* 000000D0H.5 DATA     BIT       F0
*SFR* 000000D7H   DATA     BYTE      FBD
*SFR* 00000098H.7 DATA     BIT       FE
*SFR* 000000F8H.7 DATA     BIT       FE_1
      00000024H.4 BIT      BIT       FLAG_IO_PWM
      00000024H.6 BIT      BIT       FRONT_BACK_FL
      00000020H.0 BIT      BIT       FRONT_BACK_Old
      00000029H   DATA     BYTE      FRONT_BACK_same
      00000025H.3 BIT      BIT       FRONT_FL
      0000007CH   DATA     BYTE      FrontOFFTime
      00000024H.5 BIT      BIT       G_S_FL
      0000006BH   DATA     BYTE      G_S_FL_CT
      00000078H   DATA     BYTE      G_S_HighCT
      00000048H   DATA     BYTE      G_S_HighCT_fanjiao
      00000021H.1 BIT      BIT       G_S_L2H_FL
      00000025H.0 BIT      BIT       G_S_Old
      00000020H.7 BIT      BIT       G_S_old_FL
      00000027H   DATA     BYTE      G_S_same
      00000068H   DATA     BYTE      G_S_State
      0000006FH   DATA     WORD      Hall_Add
      0000003CH   DATA     BYTE      Hall_Add_ct
      00000059H   DATA     WORD      HallLowCT
      0000007FH   DATA     BYTE      HIGH_LOW_same
LX51 LINKER/LOCATER V4.41                                                             04/26/2021  20:34:38  PAGE 5


      00000023H.3 BIT      BIT       HIGH_LOWS_PEED
      00000023H.1 BIT      BIT       HIGH_LOWS_PEED_FL
      00000025H.2 BIT      BIT       HIGH_LOWS_PEED_FLold
*SFR* 000000C1H   DATA     BYTE      I2ADDR
*SFR* 000000C0H.6 DATA     BIT       I2CEN
*SFR* 000000BEH   DATA     BYTE      I2CLK
*SFR* 000000C0H   DATA     BYTE      I2CON
*SFR* 000000C0H   DATA     BIT       I2CPX
*SFR* 000000BCH   DATA     BYTE      I2DAT
*SFR* 000000BDH   DATA     BYTE      I2STAT
*SFR* 000000BFH   DATA     BYTE      I2TOC
*SFR* 000000A7H   DATA     BYTE      IAPAH
*SFR* 000000A6H   DATA     BYTE      IAPAL
*SFR* 000000AFH   DATA     BYTE      IAPCN
*SFR* 000000AEH   DATA     BYTE      IAPFD
*SFR* 000000A4H   DATA     BYTE      IAPTRG
*SFR* 000000A5H   DATA     BYTE      IAPUEN
*SFR* 000000A8H   DATA     BYTE      IE
*SFR* 00000088H.1 DATA     BIT       IE0
*SFR* 00000088H.3 DATA     BIT       IE1
      0100099FH   CODE     ---       init
      01000003H   CODE     ---       init_ISR
*SFR* 000000B8H   DATA     BYTE      IP
*SFR* 000000B7H   DATA     BYTE      IPH
*SFR* 00000088H   DATA     BIT       IT0
*SFR* 00000088H.2 DATA     BIT       IT1
      00000020H.6 BIT      BIT       LA
      00000056H   DATA     BYTE      LED_CT
      0000007EH   DATA     BYTE      LED_Flicker_TM
      00000031H   DATA     BYTE      LED_pwm
      00000063H   DATA     BYTE      LED_TM
      0000003DH   DATA     WORD      led_yanshi
*SFR* 000000D8H.6 DATA     BIT       LOAD
      01000CA8H   CODE     ---       main
*SFR* 00000080H.1 DATA     BIT       MISO
      0000007BH   DATA     BYTE      MOS_Err
*SFR* 00000080H   DATA     BIT       MOSI
      01000AAEH   CODE     ---       MoveCtrl
      00000036H   DATA     WORD      NO_Connet_ct
      00000023H.5 BIT      BIT       NO_Connet_FL
*SFR* 000000D0H.2 DATA     BIT       OV
*SFR* 000000D0H   DATA     BIT       P
*SFR* 00000080H   DATA     BYTE      P0
*SFR* 00000080H   DATA     BIT       P00
*SFR* 00000080H.1 DATA     BIT       P01
*SFR* 00000080H.2 DATA     BIT       P02
*SFR* 00000080H.3 DATA     BIT       P03
*SFR* 00000080H.4 DATA     BIT       P04
*SFR* 00000080H.5 DATA     BIT       P05
*SFR* 00000080H.6 DATA     BIT       P06
*SFR* 00000080H.7 DATA     BIT       P07
*SFR* 000000B1H   DATA     BYTE      P0M1
*SFR* 000000B2H   DATA     BYTE      P0M2
*SFR* 000000B1H   DATA     BYTE      P0S
*SFR* 000000B2H   DATA     BYTE      P0SR
*SFR* 00000090H   DATA     BYTE      P1
*SFR* 00000090H   DATA     BIT       P10
*SFR* 00000090H.1 DATA     BIT       P11
*SFR* 00000090H.2 DATA     BIT       P12
*SFR* 00000090H.3 DATA     BIT       P13
*SFR* 00000090H.4 DATA     BIT       P14
*SFR* 00000090H.5 DATA     BIT       P15
*SFR* 00000090H.6 DATA     BIT       P16
*SFR* 00000090H.7 DATA     BIT       P17
*SFR* 000000B3H   DATA     BYTE      P1M1
LX51 LINKER/LOCATER V4.41                                                             04/26/2021  20:34:38  PAGE 6


*SFR* 000000B4H   DATA     BYTE      P1M2
*SFR* 000000B3H   DATA     BYTE      P1S
*SFR* 000000B4H   DATA     BYTE      P1SR
*SFR* 000000A0H   DATA     BYTE      P2
*SFR* 000000A0H   DATA     BIT       P20
*SFR* 000000B5H   DATA     BYTE      P2S
*SFR* 000000B0H   DATA     BYTE      P3
*SFR* 000000B0H   DATA     BIT       P30
*SFR* 000000ACH   DATA     BYTE      P3M1
*SFR* 000000ADH   DATA     BYTE      P3M2
*SFR* 000000ACH   DATA     BYTE      P3S
*SFR* 000000ADH   DATA     BYTE      P3SR
*SFR* 000000B8H.6 DATA     BIT       PADC
*SFR* 000000B8H.5 DATA     BIT       PBOD
*SFR* 00000087H   DATA     BYTE      PCON
*SFR* 000000FAH   DATA     BYTE      PDTCNT
*SFR* 000000F9H   DATA     BYTE      PDTEN
*SFR* 000000E9H   DATA     BYTE      PICON
*SFR* 000000ECH   DATA     BYTE      PIF
*SFR* 000000EAH   DATA     BYTE      PINEN
*SFR* 000000DEH   DATA     BYTE      PIOCON0
*SFR* 000000C6H   DATA     BYTE      PIOCON1
*SFR* 000000EBH   DATA     BYTE      PIPEN
*SFR* 000000FCH   DATA     BYTE      PMD
*SFR* 000000FBH   DATA     BYTE      PMEN
*SFR* 000000D6H   DATA     BYTE      PNP
      00000020H.3 BIT      BIT       POWER_ON_IO
      0000005BH   DATA     BYTE      POWER_on_TM
*SFR* 000000A0H   DATA     BYTE      PPAGE_SFR
*SFR* 000000B8H.4 DATA     BIT       PS
*SFR* 000000D0H   DATA     BYTE      PSW
*SFR* 000000B8H.1 DATA     BIT       PT0
*SFR* 000000B8H.3 DATA     BIT       PT1
      00000077H   DATA     BYTE      PWM
*SFR* 000000D2H   DATA     BYTE      PWM0H
*SFR* 000000DAH   DATA     BYTE      PWM0L
*SFR* 000000D3H   DATA     BYTE      PWM1H
*SFR* 000000DBH   DATA     BYTE      PWM1L
*SFR* 000000D4H   DATA     BYTE      PWM2H
*SFR* 000000DCH   DATA     BYTE      PWM2L
*SFR* 000000D5H   DATA     BYTE      PWM3H
*SFR* 000000DDH   DATA     BYTE      PWM3L
*SFR* 000000C4H   DATA     BYTE      PWM4H
*SFR* 000000CCH   DATA     BYTE      PWM4L
*SFR* 000000C5H   DATA     BYTE      PWM5H
*SFR* 000000CDH   DATA     BYTE      PWM5L
      0000007DH   DATA     BYTE      PWM_Ele_Set
      00000028H   DATA     BYTE      PWM_HallSet
      00000026H   DATA     BYTE      PWM_HUAN
      00000054H   DATA     BYTE      PWM_MAX_Set
      00000020H.5 BIT      BIT       PWM_xianzhi_fl
      0000006AH   DATA     BYTE      PWMADDTM
*SFR* 000000D8H   DATA     BYTE      PWMCON0
*SFR* 000000DFH   DATA     BYTE      PWMCON1
*SFR* 000000D8H.5 DATA     BIT       PWMF
*SFR* 000000B7H   DATA     BYTE      PWMINTC
      0000004CH   DATA     BYTE      PWMold
*SFR* 000000D1H   DATA     BYTE      PWMPH
*SFR* 000000D9H   DATA     BYTE      PWMPL
*SFR* 000000D8H.7 DATA     BIT       PWMRUN
*SFR* 000000B8H   DATA     BIT       PX0
*SFR* 000000B8H.2 DATA     BIT       PX1
      00000023H.4 BIT      BIT       qudiao_shache_FL
*SFR* 00000098H.2 DATA     BIT       RB8
*SFR* 000000F8H.2 DATA     BIT       RB8_1
LX51 LINKER/LOCATER V4.41                                                             04/26/2021  20:34:38  PAGE 7


*SFR* 000000CBH   DATA     BYTE      RCMP2H
*SFR* 000000CAH   DATA     BYTE      RCMP2L
*SFR* 00000084H   DATA     BYTE      RCTRIM0
*SFR* 00000085H   DATA     BYTE      RCTRIM1
      00000060H   DATA     BYTE      RELYDelayTM
*SFR* 00000098H.4 DATA     BIT       REN
*SFR* 000000F8H.4 DATA     BIT       REN_1
*SFR* 000000C6H   DATA     BYTE      RH3
*SFR* 00000098H   DATA     BIT       RI
*SFR* 000000F8H   DATA     BIT       RI_1
*SFR* 000000C5H   DATA     BYTE      RL3
*SFR* 000000D0H.3 DATA     BIT       RS0
*SFR* 000000D0H.4 DATA     BIT       RS1
*SFR* 00000086H   DATA     BYTE      RWK
*SFR* 00000080H.7 DATA     BIT       RXD
*SFR* 00000080H.2 DATA     BIT       RXD_1
*SFR* 000000A9H   DATA     BYTE      SADDR
*SFR* 000000BBH   DATA     BYTE      SADDR_1
*SFR* 000000B9H   DATA     BYTE      SADEN
*SFR* 000000BAH   DATA     BYTE      SADEN_1
*SFR* 00000099H   DATA     BYTE      SBUF
*SFR* 0000009AH   DATA     BYTE      SBUF_1
*SFR* 00000090H.3 DATA     BIT       SCL
*SFR* 00000098H   DATA     BYTE      SCON
*SFR* 000000F8H   DATA     BYTE      SCON_1
*SFR* 00000090H.4 DATA     BIT       SDA
*SFR* 00000091H   DATA     BYTE      SFRS
      0000005FH   DATA     BYTE      ShaCheTM
      00000023H.2 BIT      BIT       shangdian_yunxun_FL
*SFR* 000000C0H.3 DATA     BIT       SI
*SFR* 00000098H.7 DATA     BIT       SM0
*SFR* 000000F8H.7 DATA     BIT       SM0_1
*SFR* 00000098H.6 DATA     BIT       SM1
*SFR* 000000F8H.6 DATA     BIT       SM1_1
*SFR* 00000098H.5 DATA     BIT       SM2
*SFR* 000000F8H.5 DATA     BIT       SM2_1
*SFR* 00000081H   DATA     BYTE      SP
*SFR* 000000F3H   DATA     BYTE      SPCR
*SFR* 000000F3H   DATA     BYTE      SPCR2
*SFR* 000000F5H   DATA     BYTE      SPDR
*SFR* 000000F4H   DATA     BYTE      SPSR
*SFR* 000000C0H.5 DATA     BIT       STA
*SFR* 00000080H.4 DATA     BIT       STADC
*SFR* 000000C0H.4 DATA     BIT       STO
      00000021H.3 BIT      BIT       Stop_FL
      00000022H.1 BIT      BIT       Stop_Old
      00000046H   DATA     WORD      Stop_same
*SFR* 000000C8H   DATA     BYTE      T2CON
*SFR* 000000C9H   DATA     BYTE      T2MOD
*SFR* 000000C4H   DATA     BYTE      T3CON
*SFR* 000000C7H   DATA     BYTE      TA
*SFR* 00000098H.3 DATA     BIT       TB8
*SFR* 000000F8H.3 DATA     BIT       TB8_1
*SFR* 00000088H   DATA     BYTE      TCON
*SFR* 00000088H.5 DATA     BIT       TF0
*SFR* 00000088H.7 DATA     BIT       TF1
*SFR* 000000C8H.7 DATA     BIT       TF2
*SFR* 0000008CH   DATA     BYTE      TH0
*SFR* 0000008DH   DATA     BYTE      TH1
*SFR* 000000CDH   DATA     BYTE      TH2
*SFR* 00000098H.1 DATA     BIT       TI
*SFR* 000000F8H.1 DATA     BIT       TI_1
      0000002FH   DATA     BYTE      TIME_20MS_CT
      0000002BH   DATA     BYTE      time_500ms
      01000086H   CODE     ---       time_dsp
LX51 LINKER/LOCATER V4.41                                                             04/26/2021  20:34:38  PAGE 8


      01000061H   CODE     ---       Timer3_ISR
*SFR* 0000008AH   DATA     BYTE      TL0
*SFR* 0000008BH   DATA     BYTE      TL1
*SFR* 000000CCH   DATA     BYTE      TL2
*SFR* 00000089H   DATA     BYTE      TMOD
*SFR* 00000088H.4 DATA     BIT       TR0
*SFR* 00000088H.6 DATA     BIT       TR1
*SFR* 000000C8H.2 DATA     BIT       TR2
      00000021H.7 BIT      BIT       turn_zero_fl
      00000021H.2 BIT      BIT       TurnHighSpeed_FL
      00000021H.6 BIT      BIT       TurnHighSpeed_FL_New
*SFR* 00000080H.6 DATA     BIT       TXD
*SFR* 00000090H.6 DATA     BIT       TXD_1
      00000066H   DATA     WORD      vol_add
      0000004BH   DATA     BYTE      vol_addct
      00000064H   DATA     WORD      volHand_add
      00000049H   DATA     BYTE      volHand_addct
      0000004FH   DATA     BYTE      Voltage_AD
      00000038H   DATA     BYTE      VoltageLowCT
      00000021H.5 BIT      BIT       VoltageLowFL
      00000039H   DATA     BYTE      VoltageLowWait
*SFR* 000000AAH   DATA     BYTE      WDCON
*SFR* 0000008FH   DATA     BYTE      WKCON
      00000022H.5 BIT      BIT       yunxun_FL



SYMBOL TABLE OF MODULE:  M92_N76E003 (?C_STARTUP)

      VALUE       REP       CLASS    TYPE      SYMBOL NAME
      ====================================================
      ---         MODULE    ---      ---       ?C_STARTUP
      01000000H   PUBLIC    CODE     NEAR LAB  ?C_STARTUP
      000000E0H   SFRSYM    DATA     BYTE      ACC
      000000F0H   SFRSYM    DATA     BYTE      B
      00000083H   SFRSYM    DATA     BYTE      DPH
      00000082H   SFRSYM    DATA     BYTE      DPL
      000000A0H   SFRSYM    DATA     BYTE      PPAGE_SFR
      00000081H   SFRSYM    DATA     BYTE      SP
      00000000H   SYMBOL    NUMBER   ---       IBPSTACK
      00000100H   SYMBOL    NUMBER   ---       IBPSTACKTOP
      00000080H   SYMBOL    NUMBER   ---       IDATALEN
      01000BBCH   SYMBOL    CODE     NEAR LAB  IDATALOOP
      00000000H   SYMBOL    NUMBER   ---       PBPSTACK
      00010000H   SYMBOL    NUMBER   ---       PBPSTACKTOP
      00000000H   SYMBOL    NUMBER   ---       PDATALEN
      00000000H   SYMBOL    NUMBER   ---       PDATASTART
      00000000H   SYMBOL    NUMBER   ---       PPAGE
      00000000H   SYMBOL    NUMBER   ---       PPAGEENABLE
      01000BB9H   SYMBOL    CODE     NEAR LAB  STARTUP1
      00000000H   SYMBOL    NUMBER   ---       XBPSTACK
      00010000H   SYMBOL    NUMBER   ---       XBPSTACKTOP
      000002FFH   SYMBOL    NUMBER   ---       XDATALEN
      01000BC7H   SYMBOL    CODE     NEAR LAB  XDATALOOP
      00000000H   SYMBOL    NUMBER   ---       XDATASTART

      01000000H   BLOCK     CODE     NEAR LAB  LVL=0
      01000000H   LINE      CODE     ---       #92
      ---         BLOCKEND  ---      ---       LVL=0

      01000BB9H   BLOCK     CODE     NEAR LAB  LVL=0
      01000BB9H   LINE      CODE     ---       #99
      01000BBBH   LINE      CODE     ---       #100
      01000BBCH   LINE      CODE     ---       #101
      01000BBDH   LINE      CODE     ---       #102
LX51 LINKER/LOCATER V4.41                                                             04/26/2021  20:34:38  PAGE 9


      01000BBFH   LINE      CODE     ---       #106
      01000BC2H   LINE      CODE     ---       #107
      01000BC4H   LINE      CODE     ---       #109
      01000BC6H   LINE      CODE     ---       #113
      01000BC7H   LINE      CODE     ---       #114
      01000BC8H   LINE      CODE     ---       #115
      01000BC9H   LINE      CODE     ---       #116
      01000BCBH   LINE      CODE     ---       #117
      01000BCDH   LINE      CODE     ---       #151
      01000BD0H   LINE      CODE     ---       #155
      ---         BLOCKEND  ---      ---       LVL=0

      ---         MODULE    ---      ---       MAIN
      00000025H.3 PUBLIC    BIT      BIT       FRONT_FL
      0000007FH   PUBLIC    DATA     BYTE      HIGH_LOW_same
      0000007EH   PUBLIC    DATA     BYTE      LED_Flicker_TM
      00000025H.2 PUBLIC    BIT      BIT       HIGH_LOWS_PEED_FLold
      00000025H.1 PUBLIC    BIT      BIT       ELE_BIG_FL
      0000007DH   PUBLIC    DATA     BYTE      PWM_Ele_Set
      00000025H.0 PUBLIC    BIT      BIT       G_S_Old
      0000007CH   PUBLIC    DATA     BYTE      FrontOFFTime
      0000007BH   PUBLIC    DATA     BYTE      MOS_Err
      0000007AH   PUBLIC    DATA     BYTE      ELE28_BIG_TM
      00000079H   PUBLIC    DATA     BYTE      ELE18_BIG_TM
      00000078H   PUBLIC    DATA     BYTE      G_S_HighCT
      00000077H   PUBLIC    DATA     BYTE      PWM
      00000076H   PUBLIC    DATA     BYTE      Count2_5MS
      00000024H.7 PUBLIC    BIT      BIT       A_DET_FL
      00000075H   PUBLIC    DATA     BYTE      AD_CH
      00000074H   PUBLIC    DATA     BYTE      ELE13_BIG_TM
      00000024H.6 PUBLIC    BIT      BIT       FRONT_BACK_FL
      00000073H   PUBLIC    DATA     BYTE      ELE12_BIG_TM
      00000072H   PUBLIC    DATA     BYTE      ELE30_BIG_TM
      00000071H   PUBLIC    DATA     BYTE      ELE20_BIG_TM
      0000006FH   PUBLIC    DATA     WORD      Hall_Add
      00000024H.5 PUBLIC    BIT      BIT       G_S_FL
      0000006EH   PUBLIC    DATA     BYTE      ELE_Small_ct
      00000024H.4 PUBLIC    BIT      BIT       FLAG_IO_PWM
      0000006DH   PUBLIC    DATA     BYTE      AD_Max_Index
      00000024H.3 PUBLIC    BIT      BIT       ELE28_BIG_FL
      0000006CH   PUBLIC    DATA     BYTE      AD_Min_Index
      0000006BH   PUBLIC    DATA     BYTE      G_S_FL_CT
      00000024H.2 PUBLIC    BIT      BIT       ELE50_BIG_FL
      00000024H.1 PUBLIC    BIT      BIT       ELE40_BIG_FL
      00000024H.0 PUBLIC    BIT      BIT       ELE13_BIG_FL
      0000006AH   PUBLIC    DATA     BYTE      PWMADDTM
      00000069H   PUBLIC    DATA     BYTE      BackOFFTime
      00000023H.7 PUBLIC    BIT      BIT       ELE12_BIG_FL
      00000023H.6 PUBLIC    BIT      BIT       ELE30_BIG_FL
      00000068H   PUBLIC    DATA     BYTE      G_S_State
      00000066H   PUBLIC    DATA     WORD      vol_add
      00000023H.5 PUBLIC    BIT      BIT       NO_Connet_FL
      00000064H   PUBLIC    DATA     WORD      volHand_add
      00000063H   PUBLIC    DATA     BYTE      LED_TM
      00000062H   PUBLIC    DATA     BYTE      ELE_Wait_5s
      00000061H   PUBLIC    DATA     BYTE      ELE28_Small_ct
      00000060H   PUBLIC    DATA     BYTE      RELYDelayTM
      0000005FH   PUBLIC    DATA     BYTE      ShaCheTM
      0000005EH   PUBLIC    DATA     BYTE      ELE50_Small_ct
      0000005DH   PUBLIC    DATA     BYTE      ELE40_Small_ct
      0000005CH   PUBLIC    DATA     BYTE      ELE13_Small_ct
      0000005BH   PUBLIC    DATA     BYTE      POWER_on_TM
      00000059H   PUBLIC    DATA     WORD      HallLowCT
      00000058H   PUBLIC    DATA     BYTE      ELE12_Small_ct
      00000057H   PUBLIC    DATA     BYTE      ELE30_Small_ct
LX51 LINKER/LOCATER V4.41                                                             04/26/2021  20:34:38  PAGE 10


      00000056H   PUBLIC    DATA     BYTE      LED_CT
      00000055H   PUBLIC    DATA     BYTE      CurDanWei_AD
      00000054H   PUBLIC    DATA     BYTE      PWM_MAX_Set
      00000023H.4 PUBLIC    BIT      BIT       qudiao_shache_FL
      00000023H.3 PUBLIC    BIT      BIT       HIGH_LOWS_PEED
      00000052H   PUBLIC    DATA     WORD      count_500US_CT
      00000051H   PUBLIC    DATA     BYTE      ELE_BIG_ct
      00000023H.2 PUBLIC    BIT      BIT       shangdian_yunxun_FL
      00000050H   PUBLIC    DATA     BYTE      ELE_InterruptDISP_TM
      0000004FH   PUBLIC    DATA     BYTE      Voltage_AD
      0000004EH   PUBLIC    DATA     BYTE      Cur_ResultNew
      0000004DH   PUBLIC    DATA     BYTE      DanWei
      00000023H.1 PUBLIC    BIT      BIT       HIGH_LOWS_PEED_FL
      0000004CH   PUBLIC    DATA     BYTE      PWMold
      0000004BH   PUBLIC    DATA     BYTE      vol_addct
      0000004AH   PUBLIC    DATA     BYTE      ELE_set0
      00000049H   PUBLIC    DATA     BYTE      volHand_addct
      00000023H.0 PUBLIC    BIT      BIT       BIT_TMP
      00000022H.7 PUBLIC    BIT      BIT       ELE28_BIG_ERR_FL
      00000048H   PUBLIC    DATA     BYTE      G_S_HighCT_fanjiao
      00000022H.6 PUBLIC    BIT      BIT       ELE18_BIG_ERR_FL
      00000046H   PUBLIC    DATA     WORD      Stop_same
      00000045H   PUBLIC    DATA     BYTE      DelayOffTM
      00000044H   PUBLIC    DATA     BYTE      BeginMoveFrontTM
      00000022H.5 PUBLIC    BIT      BIT       yunxun_FL
      00000043H   PUBLIC    DATA     BYTE      ELE28_BIG_ct
      00000022H.4 PUBLIC    BIT      BIT       ELE12_BIG_ERR_FL
      00000022H.3 PUBLIC    BIT      BIT       ELE30_BIG_ERR_FL
      00000022H.2 PUBLIC    BIT      BIT       ELE20_BIG_ERR_FL
      00000022H.1 PUBLIC    BIT      BIT       Stop_Old
      00000042H   PUBLIC    DATA     BYTE      ELE50_BIG_ct
      00000022H.0 PUBLIC    BIT      BIT       CHANGE
      00000041H   PUBLIC    DATA     BYTE      ELE40_BIG_ct
      00000040H   PUBLIC    DATA     BYTE      ELE13_BIG_ct
      0000003FH   PUBLIC    DATA     BYTE      CHANGE_Off_TM
      0000003DH   PUBLIC    DATA     WORD      led_yanshi
      0000003CH   PUBLIC    DATA     BYTE      Hall_Add_ct
      0000003BH   PUBLIC    DATA     BYTE      ELE12_BIG_ct
      0000003AH   PUBLIC    DATA     BYTE      ELE30_BIG_ct
      00000039H   PUBLIC    DATA     BYTE      VoltageLowWait
      00000038H   PUBLIC    DATA     BYTE      VoltageLowCT
      00000021H.7 PUBLIC    BIT      BIT       turn_zero_fl
      00000021H.6 PUBLIC    BIT      BIT       TurnHighSpeed_FL_New
      00000036H   PUBLIC    DATA     WORD      NO_Connet_ct
      00000035H   PUBLIC    DATA     BYTE      DanWei_AD
      00000021H.5 PUBLIC    BIT      BIT       VoltageLowFL
      00000021H.4 PUBLIC    BIT      BIT       CHANGE_FL
      00000021H.3 PUBLIC    BIT      BIT       Stop_FL
      00000034H   PUBLIC    DATA     BYTE      BeginMoveBackTM
      00000021H.2 PUBLIC    BIT      BIT       TurnHighSpeed_FL
      00000021H.1 PUBLIC    BIT      BIT       G_S_L2H_FL
      00000021H.0 PUBLIC    BIT      BIT       ELE_ERR_FL
      00000033H   PUBLIC    DATA     BYTE      DanWei_PWM
      00000032H   PUBLIC    DATA     BYTE      Count1S
      00000020H.7 PUBLIC    BIT      BIT       G_S_old_FL
      00000020H.6 PUBLIC    BIT      BIT       LA
      00000031H   PUBLIC    DATA     BYTE      LED_pwm
      00000030H   PUBLIC    DATA     BYTE      ELE_BIG_TM
      0000002FH   PUBLIC    DATA     BYTE      TIME_20MS_CT
      0000002EH   PUBLIC    DATA     BYTE      ELE_BIG_SET3
      0000002DH   PUBLIC    DATA     BYTE      ELE_BIG_SET2
      0000002CH   PUBLIC    DATA     BYTE      ELE_BIG_SET1
      0000002BH   PUBLIC    DATA     BYTE      time_500ms
      00000020H.5 PUBLIC    BIT      BIT       PWM_xianzhi_fl
      0000002AH   PUBLIC    DATA     BYTE      A_DET_same
LX51 LINKER/LOCATER V4.41                                                             04/26/2021  20:34:38  PAGE 11


      00000029H   PUBLIC    DATA     BYTE      FRONT_BACK_same
      00000020H.4 PUBLIC    BIT      BIT       ceshi_zhengchang_FL
      00000028H   PUBLIC    DATA     BYTE      PWM_HallSet
      00000020H.3 PUBLIC    BIT      BIT       POWER_ON_IO
      00000020H.2 PUBLIC    BIT      BIT       BACK_FL
      00000027H   PUBLIC    DATA     BYTE      G_S_same
      00000026H   PUBLIC    DATA     BYTE      PWM_HUAN
      00000020H.1 PUBLIC    BIT      BIT       A_DET_Old
      00000020H.0 PUBLIC    BIT      BIT       FRONT_BACK_Old
      01000003H   PUBLIC    CODE     ---       init_ISR
      01000CA8H   PUBLIC    CODE     ---       main
      010006B4H   PUBLIC    CODE     ---       ADC_DSP
      01000086H   PUBLIC    CODE     ---       time_dsp
      01000AAEH   PUBLIC    CODE     ---       MoveCtrl
      01000061H   PUBLIC    CODE     ---       Timer3_ISR
      0100099FH   PUBLIC    CODE     ---       init
      0100003EH   PUBLIC    CODE     ---       _PWM_DEAD_TIME_VALUE
      000000F6H   SFRSYM    DATA     BYTE      AINDIDS
      000000B1H   SFRSYM    DATA     BYTE      P0M1
      00000080H.2 SFRSYM    DATA     BIT       RXD_1
      000000B3H   SFRSYM    DATA     BYTE      P1M1
      000000B2H   SFRSYM    DATA     BYTE      P0M2
      00000080H   SFRSYM    DATA     BYTE      P0
      000000BBH   SFRSYM    DATA     BYTE      SADDR_1
      000000B4H   SFRSYM    DATA     BYTE      P1M2
      00000090H   SFRSYM    DATA     BYTE      P1
      00000090H.6 SFRSYM    DATA     BIT       TXD_1
      000000C0H.2 SFRSYM    DATA     BIT       AA
      000000ACH   SFRSYM    DATA     BYTE      P3M1
      000000A0H   SFRSYM    DATA     BYTE      P2
      000000B0H   SFRSYM    DATA     BYTE      P3
      000000ADH   SFRSYM    DATA     BYTE      P3M2
      000000D0H.6 SFRSYM    DATA     BIT       AC
      0000008FH   SFRSYM    DATA     BYTE      WKCON
      00000084H   SFRSYM    DATA     BYTE      RCTRIM0
      0000009CH   SFRSYM    DATA     BYTE      EIE1
      00000085H   SFRSYM    DATA     BYTE      RCTRIM1
      000000A8H.7 SFRSYM    DATA     BIT       EA
      000000D8H   SFRSYM    DATA     BYTE      PWMCON0
      000000DFH   SFRSYM    DATA     BYTE      PWMCON1
      00000098H.7 SFRSYM    DATA     BIT       FE
      000000A8H.6 SFRSYM    DATA     BIT       EADC
      000000D1H   SFRSYM    DATA     BYTE      PWMPH
      000000A8H   SFRSYM    DATA     BYTE      IE
      00000096H   SFRSYM    DATA     BYTE      CKSWT
      000000E8H.7 SFRSYM    DATA     BIT       ADCF
      000000FEH   SFRSYM    DATA     BYTE      EIP1
      000000D9H   SFRSYM    DATA     BYTE      PWMPL
      000000E8H   SFRSYM    DATA     BIT       ADCHS0
      000000C7H   SFRSYM    DATA     BYTE      TA
      000000E8H.1 SFRSYM    DATA     BIT       ADCHS1
      000000E8H.2 SFRSYM    DATA     BIT       ADCHS2
      000000A8H.4 SFRSYM    DATA     BIT       ES
      000000E8H.3 SFRSYM    DATA     BIT       ADCHS3
      000000C1H   SFRSYM    DATA     BYTE      I2ADDR
      000000B8H.6 SFRSYM    DATA     BIT       PADC
      000000B8H   SFRSYM    DATA     BYTE      IP
      00000098H   SFRSYM    DATA     BIT       RI
      000000A8H.5 SFRSYM    DATA     BIT       EBOD
      000000C0H.3 SFRSYM    DATA     BIT       SI
      000000D0H.7 SFRSYM    DATA     BIT       CY
      000000E8H.6 SFRSYM    DATA     BIT       ADCS
      000000F8H.7 SFRSYM    DATA     BIT       FE_1
      00000098H.1 SFRSYM    DATA     BIT       TI
      000000D8H.6 SFRSYM    DATA     BIT       LOAD
LX51 LINKER/LOCATER V4.41                                                             04/26/2021  20:34:38  PAGE 12


      00000097H   SFRSYM    DATA     BYTE      CKEN
      000000B8H.4 SFRSYM    DATA     BIT       PS
      00000081H   SFRSYM    DATA     BYTE      SP
      000000D0H.2 SFRSYM    DATA     BIT       OV
      000000B7H   SFRSYM    DATA     BYTE      PWMINTC
      000000B8H.5 SFRSYM    DATA     BIT       PBOD
      000000B2H   SFRSYM    DATA     BYTE      P0SR
      000000F7H   SFRSYM    DATA     BYTE      EIPH
      000000B4H   SFRSYM    DATA     BYTE      P1SR
      000000ADH   SFRSYM    DATA     BYTE      P3SR
      000000F8H   SFRSYM    DATA     BIT       RI_1
      000000F8H.1 SFRSYM    DATA     BIT       TI_1
      000000CBH   SFRSYM    DATA     BYTE      RCMP2H
      000000CFH   SFRSYM    DATA     BYTE      ADCMPH
      00000080H   SFRSYM    DATA     BIT       P00
      00000080H.1 SFRSYM    DATA     BIT       P01
      00000090H   SFRSYM    DATA     BIT       P10
      000000FBH   SFRSYM    DATA     BYTE      PMEN
      00000099H   SFRSYM    DATA     BYTE      SBUF
      00000087H   SFRSYM    DATA     BYTE      PCON
      00000080H.2 SFRSYM    DATA     BIT       P02
      00000090H.1 SFRSYM    DATA     BIT       P11
      000000A0H   SFRSYM    DATA     BIT       P20
      000000CAH   SFRSYM    DATA     BYTE      RCMP2L
      00000080H.3 SFRSYM    DATA     BIT       P03
      00000090H.2 SFRSYM    DATA     BIT       P12
      000000B0H   SFRSYM    DATA     BIT       P30
      000000E3H   SFRSYM    DATA     BYTE      ADCDLY
      000000CEH   SFRSYM    DATA     BYTE      ADCMPL
      00000080H.4 SFRSYM    DATA     BIT       P04
      00000090H.3 SFRSYM    DATA     BIT       P13
      00000098H   SFRSYM    DATA     BYTE      SCON
      00000080H.5 SFRSYM    DATA     BIT       P05
      00000090H.4 SFRSYM    DATA     BIT       P14
      00000089H   SFRSYM    DATA     BYTE      TMOD
      00000088H   SFRSYM    DATA     BYTE      TCON
      00000080H.6 SFRSYM    DATA     BIT       P06
      00000090H.5 SFRSYM    DATA     BIT       P15
      00000080H.7 SFRSYM    DATA     BIT       P07
      00000090H.6 SFRSYM    DATA     BIT       P16
      00000090H.7 SFRSYM    DATA     BIT       P17
      00000080H   SFRSYM    DATA     BIT       MOSI
      00000080H.1 SFRSYM    DATA     BIT       MISO
      000000F3H   SFRSYM    DATA     BYTE      SPCR
      000000BDH   SFRSYM    DATA     BYTE      I2STAT
      000000F5H   SFRSYM    DATA     BYTE      SPDR
      000000D8H.5 SFRSYM    DATA     BIT       PWMF
      000000E5H   SFRSYM    DATA     BYTE      C0H
      000000E7H   SFRSYM    DATA     BYTE      C1H
      000000EEH   SFRSYM    DATA     BYTE      C2H
      0000009FH   SFRSYM    DATA     BYTE      CHPCON
      00000088H.1 SFRSYM    DATA     BIT       IE0
      00000088H.3 SFRSYM    DATA     BIT       IE1
      000000E4H   SFRSYM    DATA     BYTE      C0L
      00000091H   SFRSYM    DATA     BYTE      SFRS
      000000E6H   SFRSYM    DATA     BYTE      C1L
      000000C8H   SFRSYM    DATA     BIT       CM_RL2
      000000F0H   SFRSYM    DATA     BYTE      B
      000000EDH   SFRSYM    DATA     BYTE      C2L
      0000009AH   SFRSYM    DATA     BYTE      SBUF_1
      000000A5H   SFRSYM    DATA     BYTE      IAPUEN
      000000F8H   SFRSYM    DATA     BYTE      SCON_1
      000000E0H   SFRSYM    DATA     BYTE      ACC
      000000A8H.1 SFRSYM    DATA     BIT       ET0
      000000F4H   SFRSYM    DATA     BYTE      SPSR
LX51 LINKER/LOCATER V4.41                                                             04/26/2021  20:34:38  PAGE 13


      000000A4H   SFRSYM    DATA     BYTE      IAPTRG
      00000088H.5 SFRSYM    DATA     BIT       TF0
      000000A8H.3 SFRSYM    DATA     BIT       ET1
      00000088H.7 SFRSYM    DATA     BIT       TF1
      00000098H.2 SFRSYM    DATA     BIT       RB8
      000000C8H.7 SFRSYM    DATA     BIT       TF2
      000000D7H   SFRSYM    DATA     BYTE      FBD
      0000008CH   SFRSYM    DATA     BYTE      TH0
      00000088H   SFRSYM    DATA     BIT       IT0
      000000A8H   SFRSYM    DATA     BIT       EX0
      000000C6H   SFRSYM    DATA     BYTE      RH3
      0000008DH   SFRSYM    DATA     BYTE      TH1
      00000088H.2 SFRSYM    DATA     BIT       IT1
      00000098H.3 SFRSYM    DATA     BIT       TB8
      000000A8H.2 SFRSYM    DATA     BIT       EX1
      000000CDH   SFRSYM    DATA     BYTE      TH2
      000000D0H   SFRSYM    DATA     BIT       P
      000000FAH   SFRSYM    DATA     BYTE      PDTCNT
      00000098H.7 SFRSYM    DATA     BIT       SM0
      0000008AH   SFRSYM    DATA     BYTE      TL0
      00000098H.6 SFRSYM    DATA     BIT       SM1
      000000C5H   SFRSYM    DATA     BYTE      RL3
      0000008BH   SFRSYM    DATA     BYTE      TL1
      00000098H.5 SFRSYM    DATA     BIT       SM2
      000000C0H.6 SFRSYM    DATA     BIT       I2CEN
      000000CCH   SFRSYM    DATA     BYTE      TL2
      000000B1H   SFRSYM    DATA     BYTE      P0S
      0000009BH   SFRSYM    DATA     BYTE      EIE
      000000B8H.1 SFRSYM    DATA     BIT       PT0
      000000B3H   SFRSYM    DATA     BYTE      P1S
      000000B8H.3 SFRSYM    DATA     BIT       PT1
      000000D0H.3 SFRSYM    DATA     BIT       RS0
      000000BCH   SFRSYM    DATA     BYTE      I2DAT
      000000B5H   SFRSYM    DATA     BYTE      P2S
      00000088H.4 SFRSYM    DATA     BIT       TR0
      000000D0H.4 SFRSYM    DATA     BIT       RS1
      000000BEH   SFRSYM    DATA     BYTE      I2CLK
      000000ACH   SFRSYM    DATA     BYTE      P3S
      00000088H.6 SFRSYM    DATA     BIT       TR1
      000000D8H.4 SFRSYM    DATA     BIT       CLRPWM
      00000090H.4 SFRSYM    DATA     BIT       SDA
      000000B8H   SFRSYM    DATA     BIT       PX0
      000000C8H.2 SFRSYM    DATA     BIT       TR2
      000000FFH   SFRSYM    DATA     BYTE      EIPH1
      000000B8H.2 SFRSYM    DATA     BIT       PX1
      000000E8H   SFRSYM    DATA     BYTE      ADCCON0
      000000E1H   SFRSYM    DATA     BYTE      ADCCON1
      000000E2H   SFRSYM    DATA     BYTE      ADCCON2
      000000C0H   SFRSYM    DATA     BYTE      I2CON
      00000083H   SFRSYM    DATA     BYTE      DPH
      000000F8H.2 SFRSYM    DATA     BIT       RB8_1
      000000EFH   SFRSYM    DATA     BYTE      EIP
      000000F8H.3 SFRSYM    DATA     BIT       TB8_1
      000000ECH   SFRSYM    DATA     BYTE      PIF
      00000082H   SFRSYM    DATA     BYTE      DPL
      000000F8H.7 SFRSYM    DATA     BIT       SM0_1
      000000FCH   SFRSYM    DATA     BYTE      PMD
      000000B7H   SFRSYM    DATA     BYTE      IPH
      00000090H.3 SFRSYM    DATA     BIT       SCL
      000000F8H.6 SFRSYM    DATA     BIT       SM1_1
      000000BFH   SFRSYM    DATA     BYTE      I2TOC
      000000F8H.5 SFRSYM    DATA     BIT       SM2_1
      000000C3H   SFRSYM    DATA     BYTE      ADCRH
      000000A7H   SFRSYM    DATA     BYTE      IAPAH
      00000098H.4 SFRSYM    DATA     BIT       REN
LX51 LINKER/LOCATER V4.41                                                             04/26/2021  20:34:38  PAGE 14


      000000AEH   SFRSYM    DATA     BYTE      IAPFD
      00000092H   SFRSYM    DATA     BYTE      CAPCON0
      000000C0H   SFRSYM    DATA     BIT       I2CPX
      000000C9H   SFRSYM    DATA     BYTE      T2MOD
      000000C8H   SFRSYM    DATA     BYTE      T2CON
      000000C2H   SFRSYM    DATA     BYTE      ADCRL
      000000A3H   SFRSYM    DATA     BYTE      BODCON0
      00000093H   SFRSYM    DATA     BYTE      CAPCON1
      000000C0H.5 SFRSYM    DATA     BIT       STA
      000000C4H   SFRSYM    DATA     BYTE      T3CON
      000000ABH   SFRSYM    DATA     BYTE      BODCON1
      000000A6H   SFRSYM    DATA     BYTE      IAPAL
      00000094H   SFRSYM    DATA     BYTE      CAPCON2
      000000F1H   SFRSYM    DATA     BYTE      CAPCON3
      000000F2H   SFRSYM    DATA     BYTE      CAPCON4
      000000D8H.7 SFRSYM    DATA     BIT       PWMRUN
      000000F3H   SFRSYM    DATA     BYTE      SPCR2
      000000B9H   SFRSYM    DATA     BYTE      SADEN
      000000AFH   SFRSYM    DATA     BYTE      IAPCN
      000000D2H   SFRSYM    DATA     BYTE      PWM0H
      00000080H.7 SFRSYM    DATA     BIT       RXD
      000000D6H   SFRSYM    DATA     BYTE      PNP
      000000D3H   SFRSYM    DATA     BYTE      PWM1H
      000000D4H   SFRSYM    DATA     BYTE      PWM2H
      000000A9H   SFRSYM    DATA     BYTE      SADDR
      0000008EH   SFRSYM    DATA     BYTE      CKCON
      00000080H.4 SFRSYM    DATA     BIT       STADC
      00000080H.6 SFRSYM    DATA     BIT       TXD
      000000D5H   SFRSYM    DATA     BYTE      PWM3H
      000000DAH   SFRSYM    DATA     BYTE      PWM0L
      000000C4H   SFRSYM    DATA     BYTE      PWM4H
      000000DBH   SFRSYM    DATA     BYTE      PWM1L
      000000C5H   SFRSYM    DATA     BYTE      PWM5H
      000000A2H   SFRSYM    DATA     BYTE      AUXR1
      00000095H   SFRSYM    DATA     BYTE      CKDIV
      000000DCH   SFRSYM    DATA     BYTE      PWM2L
      000000DDH   SFRSYM    DATA     BYTE      PWM3L
      00000086H   SFRSYM    DATA     BYTE      RWK
      000000D0H.5 SFRSYM    DATA     BIT       F0
      000000CCH   SFRSYM    DATA     BYTE      PWM4L
      000000C0H.4 SFRSYM    DATA     BIT       STO
      000000E8H.4 SFRSYM    DATA     BIT       ETGSEL0
      000000F8H.4 SFRSYM    DATA     BIT       REN_1
      000000CDH   SFRSYM    DATA     BYTE      PWM5L
      000000E8H.5 SFRSYM    DATA     BIT       ETGSEL1
      000000E9H   SFRSYM    DATA     BYTE      PICON
      000000DEH   SFRSYM    DATA     BYTE      PIOCON0
      000000D0H   SFRSYM    DATA     BYTE      PSW
      000000EAH   SFRSYM    DATA     BYTE      PINEN
      000000C6H   SFRSYM    DATA     BYTE      PIOCON1
      000000F9H   SFRSYM    DATA     BYTE      PDTEN
      000000AAH   SFRSYM    DATA     BYTE      WDCON
      000000EBH   SFRSYM    DATA     BYTE      PIPEN
      000000BAH   SFRSYM    DATA     BYTE      SADEN_1

      0100003EH   BLOCK     CODE     ---       LVL=0
      00000006H   SYMBOL    DATA     WORD      DeadTimeData
      0100003EH   BLOCK     CODE     NEAR LAB  LVL=1
      00000007H   SYMBOL    DATA     BYTE      deadtmphigh
      00000005H   SYMBOL    DATA     BYTE      deadtmplow
      ---         BLOCKEND  ---      ---       LVL=1
      0100003EH   LINE      CODE     ---       #425
      0100003EH   LINE      CODE     ---       #426
      0100003EH   LINE      CODE     ---       #428
      01000040H   LINE      CODE     ---       #429
LX51 LINKER/LOCATER V4.41                                                             04/26/2021  20:34:38  PAGE 15


      01000042H   LINE      CODE     ---       #430
      01000046H   LINE      CODE     ---       #431
      01000049H   LINE      CODE     ---       #432
      01000049H   LINE      CODE     ---       #433
      0100004BH   LINE      CODE     ---       #434
      0100004EH   LINE      CODE     ---       #435
      01000051H   LINE      CODE     ---       #436
      01000054H   LINE      CODE     ---       #437
      01000054H   LINE      CODE     ---       #438
      01000057H   LINE      CODE     ---       #439
      0100005AH   LINE      CODE     ---       #440
      0100005CH   LINE      CODE     ---       #441
      01000060H   LINE      CODE     ---       #442
      ---         BLOCKEND  ---      ---       LVL=0

      0100099FH   BLOCK     CODE     ---       LVL=0
      0100099FH   LINE      CODE     ---       #446
      0100099FH   LINE      CODE     ---       #447
      0100099FH   LINE      CODE     ---       #448
      010009A1H   LINE      CODE     ---       #449
      010009A3H   LINE      CODE     ---       #451
      010009A5H   LINE      CODE     ---       #452
      010009ABH   LINE      CODE     ---       #458
      010009B1H   LINE      CODE     ---       #459
      010009B7H   LINE      CODE     ---       #460
      010009BDH   LINE      CODE     ---       #461
      010009C3H   LINE      CODE     ---       #462
      010009C5H   LINE      CODE     ---       #463
      010009C7H   LINE      CODE     ---       #464
      010009CDH   LINE      CODE     ---       #465
      010009D3H   LINE      CODE     ---       #466
      010009D9H   LINE      CODE     ---       #467
      010009DFH   LINE      CODE     ---       #469
      010009E5H   LINE      CODE     ---       #470
      010009EBH   LINE      CODE     ---       #471
      010009F1H   LINE      CODE     ---       #475
      010009F4H   LINE      CODE     ---       #476
      010009F7H   LINE      CODE     ---       #477
      010009FDH   LINE      CODE     ---       #479
      01000A00H   LINE      CODE     ---       #481
      01000A13H   LINE      CODE     ---       #482
      01000A19H   LINE      CODE     ---       #483
      01000A1CH   LINE      CODE     ---       #484
      01000A1FH   LINE      CODE     ---       #485
      01000A25H   LINE      CODE     ---       #491
      01000A38H   LINE      CODE     ---       #492
      01000A3AH   LINE      CODE     ---       #493
      01000A3CH   LINE      CODE     ---       #494
      01000A4FH   LINE      CODE     ---       #497
      01000A51H   LINE      CODE     ---       #498
      01000A53H   LINE      CODE     ---       #500
      01000A56H   LINE      CODE     ---       #501
      01000A59H   LINE      CODE     ---       #502
      01000A5CH   LINE      CODE     ---       #503
      01000A5EH   LINE      CODE     ---       #504
      01000A61H   LINE      CODE     ---       #506
      01000A6AH   LINE      CODE     ---       #507
      01000A7EH   LINE      CODE     ---       #509
      01000A81H   LINE      CODE     ---       #510
      01000A83H   LINE      CODE     ---       #511
      01000A85H   LINE      CODE     ---       #512
      01000A87H   LINE      CODE     ---       #515
      01000A8AH   LINE      CODE     ---       #518
      01000A8CH   LINE      CODE     ---       #519
      01000A8EH   LINE      CODE     ---       #520
LX51 LINKER/LOCATER V4.41                                                             04/26/2021  20:34:38  PAGE 16


      01000A91H   LINE      CODE     ---       #521
      01000A94H   LINE      CODE     ---       #522
      01000A96H   LINE      CODE     ---       #526
      01000A98H   LINE      CODE     ---       #527
      01000A9AH   LINE      CODE     ---       #528
      01000A9CH   LINE      CODE     ---       #530
      01000A9FH   LINE      CODE     ---       #531
      01000AA1H   LINE      CODE     ---       #532
      01000AA3H   LINE      CODE     ---       #533
      01000AA5H   LINE      CODE     ---       #535
      01000AA7H   LINE      CODE     ---       #536
      01000AA9H   LINE      CODE     ---       #537
      01000AABH   LINE      CODE     ---       #538
      01000AADH   LINE      CODE     ---       #541
      ---         BLOCKEND  ---      ---       LVL=0

      01000061H   BLOCK     CODE     ---       LVL=0
      01000061H   LINE      CODE     ---       #555
      01000063H   LINE      CODE     ---       #558
      01000066H   LINE      CODE     ---       #561
      0100006EH   LINE      CODE     ---       #571
      ---         BLOCKEND  ---      ---       LVL=0

      01000AAEH   BLOCK     CODE     ---       LVL=0
      01000AAEH   LINE      CODE     ---       #574
      01000AAEH   LINE      CODE     ---       #575
      01000AAEH   LINE      CODE     ---       #577
      01000AB7H   LINE      CODE     ---       #578
      01000AB7H   LINE      CODE     ---       #580
      01000ABAH   LINE      CODE     ---       #581
      01000ABCH   LINE      CODE     ---       #583
      01000AC2H   LINE      CODE     ---       #584
      01000AC4H   LINE      CODE     ---       #585
      01000AC8H   LINE      CODE     ---       #586
      01000AD3H   LINE      CODE     ---       #587
      01000AD3H   LINE      CODE     ---       #589
      01000AD3H   LINE      CODE     ---       #592
      01000AD9H   LINE      CODE     ---       #593
      01000ADEH   LINE      CODE     ---       #594
      01000AE9H   LINE      CODE     ---       #595
      01000AE9H   LINE      CODE     ---       #597
      01000AE9H   LINE      CODE     ---       #598
      01000AEEH   LINE      CODE     ---       #599
      01000AF9H   LINE      CODE     ---       #600
      01000AF9H   LINE      CODE     ---       #601
      01000AFCH   LINE      CODE     ---       #602
      01000AFCH   LINE      CODE     ---       #603
      01000AFFH   LINE      CODE     ---       #604
      01000B02H   LINE      CODE     ---       #605
      01000B02H   LINE      CODE     ---       #606
      01000B04H   LINE      CODE     ---       #608
      01000B0AH   LINE      CODE     ---       #609
      01000B0CH   LINE      CODE     ---       #610
      01000B11H   LINE      CODE     ---       #611
      01000B1CH   LINE      CODE     ---       #612
      01000B1CH   LINE      CODE     ---       #615
      01000B1CH   LINE      CODE     ---       #616
      01000B22H   LINE      CODE     ---       #617
      01000B27H   LINE      CODE     ---       #618
      01000B32H   LINE      CODE     ---       #619
      01000B32H   LINE      CODE     ---       #620
      01000B35H   LINE      CODE     ---       #621
      01000B35H   LINE      CODE     ---       #623
      01000B38H   LINE      CODE     ---       #624
      01000B3BH   LINE      CODE     ---       #625
LX51 LINKER/LOCATER V4.41                                                             04/26/2021  20:34:38  PAGE 17


      01000B3BH   LINE      CODE     ---       #626
      01000B3DH   LINE      CODE     ---       #628
      01000B3DH   LINE      CODE     ---       #632
      01000B43H   LINE      CODE     ---       #633
      01000B43H   LINE      CODE     ---       #634
      01000B46H   LINE      CODE     ---       #636
      01000B59H   LINE      CODE     ---       #637
      01000B5CH   LINE      CODE     ---       #638
      01000B63H   LINE      CODE     ---       #639
      01000B76H   LINE      CODE     ---       #640
      01000B78H   LINE      CODE     ---       #642
      01000B7FH   LINE      CODE     ---       #643
      01000B7FH   LINE      CODE     ---       #644
      01000B82H   LINE      CODE     ---       #645
      01000B85H   LINE      CODE     ---       #646
      01000B87H   LINE      CODE     ---       #647
      01000B89H   LINE      CODE     ---       #648
      01000B8BH   LINE      CODE     ---       #650
      01000B8CH   LINE      CODE     ---       #653
      01000B90H   LINE      CODE     ---       #654
      01000B90H   LINE      CODE     ---       #655
      01000B93H   LINE      CODE     ---       #656
      01000B96H   LINE      CODE     ---       #657
      01000B98H   LINE      CODE     ---       #658
      01000B9AH   LINE      CODE     ---       #659
      01000B9CH   LINE      CODE     ---       #661
      01000B9DH   LINE      CODE     ---       #663
      01000B9DH   LINE      CODE     ---       #664
      01000BA0H   LINE      CODE     ---       #665
      01000BA0H   LINE      CODE     ---       #704
      01000BA3H   LINE      CODE     ---       #705
      01000BA8H   LINE      CODE     ---       #707
      01000BB3H   LINE      CODE     ---       #708
      01000BB3H   LINE      CODE     ---       #710
      01000BB3H   LINE      CODE     ---       #712
      01000BB6H   LINE      CODE     ---       #715
      01000BB8H   LINE      CODE     ---       #716
      01000BB8H   LINE      CODE     ---       #717
      01000BB8H   LINE      CODE     ---       #720
      01000BB8H   LINE      CODE     ---       #721
      ---         BLOCKEND  ---      ---       LVL=0

      01000086H   BLOCK     CODE     ---       LVL=0
      01000086H   BLOCK     CODE     NEAR LAB  LVL=1
      00000007H   SYMBOL    DATA     BYTE      temp
      0100024CH   SYMBOL    CODE     ---       NoTestAD
      010005DFH   SYMBOL    CODE     ---       ESC_STOP2
      010005FDH   SYMBOL    CODE     ---       ESC_STOP8
      01000651H   SYMBOL    CODE     ---       ESC_STOP
      010006A1H   SYMBOL    CODE     ---       ESC_STOP6
      ---         BLOCKEND  ---      ---       LVL=1
      01000086H   LINE      CODE     ---       #724
      01000086H   LINE      CODE     ---       #725
      01000086H   LINE      CODE     ---       #728
      0100008FH   LINE      CODE     ---       #729
      0100008FH   LINE      CODE     ---       #730
      01000094H   LINE      CODE     ---       #732
      0100009BH   LINE      CODE     ---       #733
      0100009DH   LINE      CODE     ---       #735
      010000A4H   LINE      CODE     ---       #736
      010000A6H   LINE      CODE     ---       #739
      010000A8H   LINE      CODE     ---       #740
      010000AFH   LINE      CODE     ---       #741
      010000AFH   LINE      CODE     ---       #742
      010000B2H   LINE      CODE     ---       #743
LX51 LINKER/LOCATER V4.41                                                             04/26/2021  20:34:38  PAGE 18


      010000B4H   LINE      CODE     ---       #744
      010000BBH   LINE      CODE     ---       #745
      010000BBH   LINE      CODE     ---       #746
      010000BEH   LINE      CODE     ---       #748
      010000C2H   LINE      CODE     ---       #749
      010000C4H   LINE      CODE     ---       #751
      010000C8H   LINE      CODE     ---       #752
      010000C8H   LINE      CODE     ---       #753
      010000CAH   LINE      CODE     ---       #755
      010000CAH   LINE      CODE     ---       #762
      010000CAH   LINE      CODE     ---       #763
      010000CAH   LINE      CODE     ---       #852
      010000CDH   LINE      CODE     ---       #853
      010000CDH   LINE      CODE     ---       #854
      010000CFH   LINE      CODE     ---       #855
      010000D2H   LINE      CODE     ---       #856
      010000D4H   LINE      CODE     ---       #858
      010000D8H   LINE      CODE     ---       #859
      010000DAH   LINE      CODE     ---       #861
      010000E1H   LINE      CODE     ---       #862
      010000E3H   LINE      CODE     ---       #886
      01000103H   LINE      CODE     ---       #887
      01000103H   LINE      CODE     ---       #888
      01000105H   LINE      CODE     ---       #889
      01000107H   LINE      CODE     ---       #890
      01000109H   LINE      CODE     ---       #891
      0100010BH   LINE      CODE     ---       #892
      0100010DH   LINE      CODE     ---       #894
      01000110H   LINE      CODE     ---       #895
      01000110H   LINE      CODE     ---       #896
      01000112H   LINE      CODE     ---       #897
      01000114H   LINE      CODE     ---       #898
      01000116H   LINE      CODE     ---       #899
      01000118H   LINE      CODE     ---       #900
      01000118H   LINE      CODE     ---       #917
      0100011BH   LINE      CODE     ---       #918
      0100011BH   LINE      CODE     ---       #919
      0100011EH   LINE      CODE     ---       #920
      0100011EH   LINE      CODE     ---       #921
      01000120H   LINE      CODE     ---       #922
      01000125H   LINE      CODE     ---       #923
      01000127H   LINE      CODE     ---       #924
      01000127H   LINE      CODE     ---       #925
      01000129H   LINE      CODE     ---       #927
      01000129H   LINE      CODE     ---       #928
      0100012CH   LINE      CODE     ---       #929
      0100012CH   LINE      CODE     ---       #930
      0100012EH   LINE      CODE     ---       #931
      01000130H   LINE      CODE     ---       #932
      01000132H   LINE      CODE     ---       #933
      0100013AH   LINE      CODE     ---       #934
      01000143H   LINE      CODE     ---       #935
      01000143H   LINE      CODE     ---       #936
      01000145H   LINE      CODE     ---       #937
      01000147H   LINE      CODE     ---       #938
      01000147H   LINE      CODE     ---       #939
      01000147H   LINE      CODE     ---       #940
      01000147H   LINE      CODE     ---       #942
      0100014AH   LINE      CODE     ---       #943
      0100014AH   LINE      CODE     ---       #944
      01000152H   LINE      CODE     ---       #946
      0100015BH   LINE      CODE     ---       #947
      0100015BH   LINE      CODE     ---       #948
      0100015DH   LINE      CODE     ---       #949
      0100015FH   LINE      CODE     ---       #950
LX51 LINKER/LOCATER V4.41                                                             04/26/2021  20:34:38  PAGE 19


      0100015FH   LINE      CODE     ---       #952
      01000162H   LINE      CODE     ---       #953
      01000162H   LINE      CODE     ---       #954
      01000177H   LINE      CODE     ---       #955
      01000179H   LINE      CODE     ---       #956
      01000183H   LINE      CODE     ---       #957
      01000185H   LINE      CODE     ---       #958
      01000185H   LINE      CODE     ---       #960
      01000185H   LINE      CODE     ---       #964
      01000193H   LINE      CODE     ---       #965
      01000193H   LINE      CODE     ---       #966
      010001A7H   LINE      CODE     ---       #967
      010001A7H   LINE      CODE     ---       #968
      010001A9H   LINE      CODE     ---       #969
      010001A9H   LINE      CODE     ---       #971
      010001ACH   LINE      CODE     ---       #972
      010001ACH   LINE      CODE     ---       #974
      010001ACH   LINE      CODE     ---       #978
      010001B1H   LINE      CODE     ---       #979
      010001B3H   LINE      CODE     ---       #980
      010001B3H   LINE      CODE     ---       #982
      010001BAH   LINE      CODE     ---       #983
      010001C1H   LINE      CODE     ---       #985
      010001C7H   LINE      CODE     ---       #987
      010001CDH   LINE      CODE     ---       #988
      010001CDH   LINE      CODE     ---       #991
      010001D4H   LINE      CODE     ---       #992
      010001D4H   LINE      CODE     ---       #994
      010001D7H   LINE      CODE     ---       #995
      010001DAH   LINE      CODE     ---       #996
      010001DDH   LINE      CODE     ---       #998
      010001E0H   LINE      CODE     ---       #1000
      010001E2H   LINE      CODE     ---       #1001
      010001E5H   LINE      CODE     ---       #1002
      010001E8H   LINE      CODE     ---       #1003
      010001EAH   LINE      CODE     ---       #1004
      010001ECH   LINE      CODE     ---       #1008
      010001F3H   LINE      CODE     ---       #1009
      010001F3H   LINE      CODE     ---       #1016
      010001F5H   LINE      CODE     ---       #1017
      010001F8H   LINE      CODE     ---       #1018
      010001FBH   LINE      CODE     ---       #1019
      010001FEH   LINE      CODE     ---       #1021
      01000201H   LINE      CODE     ---       #1023
      01000203H   LINE      CODE     ---       #1024
      01000206H   LINE      CODE     ---       #1025
      01000209H   LINE      CODE     ---       #1026
      0100020BH   LINE      CODE     ---       #1027
      0100020DH   LINE      CODE     ---       #1030
      01000214H   LINE      CODE     ---       #1031
      01000214H   LINE      CODE     ---       #1040
      01000216H   LINE      CODE     ---       #1041
      01000219H   LINE      CODE     ---       #1042
      0100021CH   LINE      CODE     ---       #1043
      0100021FH   LINE      CODE     ---       #1045
      01000222H   LINE      CODE     ---       #1047
      01000224H   LINE      CODE     ---       #1048
      01000227H   LINE      CODE     ---       #1049
      0100022AH   LINE      CODE     ---       #1050
      0100022CH   LINE      CODE     ---       #1051
      0100022EH   LINE      CODE     ---       #1053
      0100022EH   LINE      CODE     ---       #1059
      01000230H   LINE      CODE     ---       #1060
      01000233H   LINE      CODE     ---       #1061
      01000236H   LINE      CODE     ---       #1062
LX51 LINKER/LOCATER V4.41                                                             04/26/2021  20:34:38  PAGE 20


      01000239H   LINE      CODE     ---       #1063
      0100023CH   LINE      CODE     ---       #1065
      0100023EH   LINE      CODE     ---       #1066
      01000241H   LINE      CODE     ---       #1067
      01000244H   LINE      CODE     ---       #1068
      01000246H   LINE      CODE     ---       #1069
      01000246H   LINE      CODE     ---       #1072
      01000249H   LINE      CODE     ---       #1073
      0100024CH   LINE      CODE     ---       #1090
      0100024CH   LINE      CODE     ---       #1092
      01000256H   LINE      CODE     ---       #1093
      01000256H   LINE      CODE     ---       #1095
      01000259H   LINE      CODE     ---       #1096
      01000259H   LINE      CODE     ---       #1097
      0100025BH   LINE      CODE     ---       #1098
      0100025DH   LINE      CODE     ---       #1099
      0100025FH   LINE      CODE     ---       #1101
      0100025FH   LINE      CODE     ---       #1102
      01000261H   LINE      CODE     ---       #1103
      01000263H   LINE      CODE     ---       #1104
      01000263H   LINE      CODE     ---       #1105
      01000265H   LINE      CODE     ---       #1107
      01000265H   LINE      CODE     ---       #1108
      01000267H   LINE      CODE     ---       #1109
      01000269H   LINE      CODE     ---       #1110
      01000269H   LINE      CODE     ---       #1149
      01000271H   LINE      CODE     ---       #1150
      01000271H   LINE      CODE     ---       #1151
      01000275H   LINE      CODE     ---       #1152
      01000277H   LINE      CODE     ---       #1153
      01000279H   LINE      CODE     ---       #1154
      0100027CH   LINE      CODE     ---       #1155
      0100027CH   LINE      CODE     ---       #1172
      01000282H   LINE      CODE     ---       #1173
      01000282H   LINE      CODE     ---       #1174
      01000285H   LINE      CODE     ---       #1175
      01000287H   LINE      CODE     ---       #1176
      01000289H   LINE      CODE     ---       #1177
      0100028BH   LINE      CODE     ---       #1179
      0100028DH   LINE      CODE     ---       #1182
      01000290H   LINE      CODE     ---       #1183
      01000290H   LINE      CODE     ---       #1184
      01000293H   LINE      CODE     ---       #1185
      01000296H   LINE      CODE     ---       #1186
      01000299H   LINE      CODE     ---       #1187
      010002A0H   LINE      CODE     ---       #1188
      010002A2H   LINE      CODE     ---       #1190
      010002A9H   LINE      CODE     ---       #1191
      010002A9H   LINE      CODE     ---       #1192
      010002ABH   LINE      CODE     ---       #1193
      010002AEH   LINE      CODE     ---       #1194
      010002B0H   LINE      CODE     ---       #1195
      010002B2H   LINE      CODE     ---       #1196
      010002B4H   LINE      CODE     ---       #1198
      010002B7H   LINE      CODE     ---       #1199
      010002B9H   LINE      CODE     ---       #1201
      010002B9H   LINE      CODE     ---       #1202
      010002BCH   LINE      CODE     ---       #1203
      010002BCH   LINE      CODE     ---       #1204
      010002BFH   LINE      CODE     ---       #1205
      010002C2H   LINE      CODE     ---       #1206
      010002C5H   LINE      CODE     ---       #1207
      010002CCH   LINE      CODE     ---       #1208
      010002CEH   LINE      CODE     ---       #1209
      010002D5H   LINE      CODE     ---       #1210
LX51 LINKER/LOCATER V4.41                                                             04/26/2021  20:34:38  PAGE 21


      010002D5H   LINE      CODE     ---       #1211
      010002D7H   LINE      CODE     ---       #1212
      010002DAH   LINE      CODE     ---       #1213
      010002DCH   LINE      CODE     ---       #1214
      010002DEH   LINE      CODE     ---       #1215
      010002E0H   LINE      CODE     ---       #1217
      010002E0H   LINE      CODE     ---       #1218
      010002E3H   LINE      CODE     ---       #1219
      010002E3H   LINE      CODE     ---       #1221
      010002E5H   LINE      CODE     ---       #1223
      010002E5H   LINE      CODE     ---       #1224
      010002E8H   LINE      CODE     ---       #1225
      010002EAH   LINE      CODE     ---       #1226
      010002EAH   LINE      CODE     ---       #1227
      010002EAH   LINE      CODE     ---       #1228
      010002F7H   LINE      CODE     ---       #1229
      010002F7H   LINE      CODE     ---       #1232
      010002FEH   LINE      CODE     ---       #1233
      01000301H   LINE      CODE     ---       #1235
      01000303H   LINE      CODE     ---       #1236
      0100030AH   LINE      CODE     ---       #1237
      0100030AH   LINE      CODE     ---       #1238
      0100030DH   LINE      CODE     ---       #1241
      01000310H   LINE      CODE     ---       #1242
      01000310H   LINE      CODE     ---       #1243
      0100031EH   LINE      CODE     ---       #1244
      01000320H   LINE      CODE     ---       #1246
      01000327H   LINE      CODE     ---       #1247
      01000329H   LINE      CODE     ---       #1248
      01000329H   LINE      CODE     ---       #1250
      01000330H   LINE      CODE     ---       #1251
      01000330H   LINE      CODE     ---       #1252
      01000332H   LINE      CODE     ---       #1253
      01000334H   LINE      CODE     ---       #1254
      01000337H   LINE      CODE     ---       #1255
      01000339H   LINE      CODE     ---       #1257
      01000339H   LINE      CODE     ---       #1258
      0100033BH   LINE      CODE     ---       #1259
      0100033EH   LINE      CODE     ---       #1260
      0100033EH   LINE      CODE     ---       #1262
      0100033EH   LINE      CODE     ---       #1264
      01000340H   LINE      CODE     ---       #1266
      01000340H   LINE      CODE     ---       #1267
      01000343H   LINE      CODE     ---       #1268
      01000343H   LINE      CODE     ---       #1271
      01000345H   LINE      CODE     ---       #1272
      0100034FH   LINE      CODE     ---       #1273
      0100034FH   LINE      CODE     ---       #1274
      01000352H   LINE      CODE     ---       #1276
      01000359H   LINE      CODE     ---       #1277
      0100035BH   LINE      CODE     ---       #1279
      01000365H   LINE      CODE     ---       #1280
      01000365H   LINE      CODE     ---       #1282
      0100036EH   LINE      CODE     ---       #1283
      0100036EH   LINE      CODE     ---       #1285
      01000371H   LINE      CODE     ---       #1286
      01000376H   LINE      CODE     ---       #1287
      01000376H   LINE      CODE     ---       #1288
      01000378H   LINE      CODE     ---       #1290
      01000381H   LINE      CODE     ---       #1291
      01000381H   LINE      CODE     ---       #1292
      01000384H   LINE      CODE     ---       #1293
      01000386H   LINE      CODE     ---       #1295
      0100038AH   LINE      CODE     ---       #1296
      0100038AH   LINE      CODE     ---       #1298
LX51 LINKER/LOCATER V4.41                                                             04/26/2021  20:34:38  PAGE 22


      01000390H   LINE      CODE     ---       #1299
      01000397H   LINE      CODE     ---       #1301
      01000399H   LINE      CODE     ---       #1302
      01000399H   LINE      CODE     ---       #1304
      010003AEH   LINE      CODE     ---       #1305
      010003AEH   LINE      CODE     ---       #1306
      010003B1H   LINE      CODE     ---       #1307
      010003B3H   LINE      CODE     ---       #1309
      010003B3H   LINE      CODE     ---       #1311
      010003B3H   LINE      CODE     ---       #1324
      010003B8H   LINE      CODE     ---       #1325
      010003B8H   LINE      CODE     ---       #1326
      010003BBH   LINE      CODE     ---       #1328
      010003BDH   LINE      CODE     ---       #1329
      010003C2H   LINE      CODE     ---       #1330
      010003C2H   LINE      CODE     ---       #1331
      010003C5H   LINE      CODE     ---       #1333
      010003C7H   LINE      CODE     ---       #1336
      010003CAH   LINE      CODE     ---       #1337
      010003CAH   LINE      CODE     ---       #1338
      010003CDH   LINE      CODE     ---       #1339
      010003CFH   LINE      CODE     ---       #1341
      010003D2H   LINE      CODE     ---       #1342
      010003D2H   LINE      CODE     ---       #1343
      010003D5H   LINE      CODE     ---       #1344
      010003D7H   LINE      CODE     ---       #1346
      010003E3H   LINE      CODE     ---       #1347
      010003E3H   LINE      CODE     ---       #1348
      010003E6H   LINE      CODE     ---       #1349
      010003E8H   LINE      CODE     ---       #1351
      010003EBH   LINE      CODE     ---       #1352
      010003EBH   LINE      CODE     ---       #1353
      010003EEH   LINE      CODE     ---       #1354
      010003F0H   LINE      CODE     ---       #1356
      010003F0H   LINE      CODE     ---       #1357
      010003F3H   LINE      CODE     ---       #1358
      010003F3H   LINE      CODE     ---       #1362
      010003FFH   LINE      CODE     ---       #1363
      010003FFH   LINE      CODE     ---       #1364
      01000402H   LINE      CODE     ---       #1536
      01000405H   LINE      CODE     ---       #1537
      01000405H   LINE      CODE     ---       #1562
      01000408H   LINE      CODE     ---       #1563
      01000408H   LINE      CODE     ---       #1565
      01000415H   LINE      CODE     ---       #1566
      01000415H   LINE      CODE     ---       #1567
      0100041DH   LINE      CODE     ---       #1568
      0100041DH   LINE      CODE     ---       #1569
      0100041FH   LINE      CODE     ---       #1570
      01000422H   LINE      CODE     ---       #1571
      01000425H   LINE      CODE     ---       #1572
      01000425H   LINE      CODE     ---       #1573
      01000425H   LINE      CODE     ---       #1574
      01000425H   LINE      CODE     ---       #1576
      01000433H   LINE      CODE     ---       #1577
      01000433H   LINE      CODE     ---       #1578
      0100043CH   LINE      CODE     ---       #1579
      0100043CH   LINE      CODE     ---       #1580
      0100043EH   LINE      CODE     ---       #1581
      01000441H   LINE      CODE     ---       #1582
      01000444H   LINE      CODE     ---       #1583
      01000444H   LINE      CODE     ---       #1584
      01000444H   LINE      CODE     ---       #1586
      01000452H   LINE      CODE     ---       #1587
      01000452H   LINE      CODE     ---       #1588
LX51 LINKER/LOCATER V4.41                                                             04/26/2021  20:34:38  PAGE 23


      0100045BH   LINE      CODE     ---       #1589
      0100045BH   LINE      CODE     ---       #1590
      0100045DH   LINE      CODE     ---       #1591
      01000460H   LINE      CODE     ---       #1592
      01000463H   LINE      CODE     ---       #1593
      01000463H   LINE      CODE     ---       #1594
      01000463H   LINE      CODE     ---       #1596
      01000465H   LINE      CODE     ---       #1598
      01000465H   LINE      CODE     ---       #1599
      01000468H   LINE      CODE     ---       #1600
      0100046CH   LINE      CODE     ---       #1601
      0100046EH   LINE      CODE     ---       #1602
      0100046EH   LINE      CODE     ---       #1606
      01000471H   LINE      CODE     ---       #1607
      01000471H   LINE      CODE     ---       #1609
      0100047AH   LINE      CODE     ---       #1610
      0100047AH   LINE      CODE     ---       #1611
      0100047CH   LINE      CODE     ---       #1612
      0100047FH   LINE      CODE     ---       #1613
      01000482H   LINE      CODE     ---       #1614
      01000482H   LINE      CODE     ---       #1615
      01000484H   LINE      CODE     ---       #1617
      01000484H   LINE      CODE     ---       #1618
      01000487H   LINE      CODE     ---       #1619
      0100048BH   LINE      CODE     ---       #1620
      0100048DH   LINE      CODE     ---       #1621
      0100048DH   LINE      CODE     ---       #1624
      01000490H   LINE      CODE     ---       #1625
      01000490H   LINE      CODE     ---       #1627
      01000499H   LINE      CODE     ---       #1628
      01000499H   LINE      CODE     ---       #1629
      0100049BH   LINE      CODE     ---       #1630
      0100049EH   LINE      CODE     ---       #1631
      010004A1H   LINE      CODE     ---       #1632
      010004A1H   LINE      CODE     ---       #1633
      010004A3H   LINE      CODE     ---       #1635
      010004A3H   LINE      CODE     ---       #1636
      010004A6H   LINE      CODE     ---       #1637
      010004AAH   LINE      CODE     ---       #1638
      010004ACH   LINE      CODE     ---       #1639
      010004ACH   LINE      CODE     ---       #1642
      010004AFH   LINE      CODE     ---       #1643
      010004AFH   LINE      CODE     ---       #1645
      010004B8H   LINE      CODE     ---       #1646
      010004B8H   LINE      CODE     ---       #1647
      010004BAH   LINE      CODE     ---       #1648
      010004BDH   LINE      CODE     ---       #1649
      010004C0H   LINE      CODE     ---       #1650
      010004C0H   LINE      CODE     ---       #1651
      010004C2H   LINE      CODE     ---       #1653
      010004C2H   LINE      CODE     ---       #1654
      010004C5H   LINE      CODE     ---       #1655
      010004C9H   LINE      CODE     ---       #1656
      010004CBH   LINE      CODE     ---       #1657
      010004CBH   LINE      CODE     ---       #1713
      010004CFH   LINE      CODE     ---       #1714
      010004D1H   LINE      CODE     ---       #1716
      010004D5H   LINE      CODE     ---       #1717
      010004D7H   LINE      CODE     ---       #1720
      010004DAH   LINE      CODE     ---       #1721
      010004DAH   LINE      CODE     ---       #1723
      010004E3H   LINE      CODE     ---       #1724
      010004E3H   LINE      CODE     ---       #1725
      010004E5H   LINE      CODE     ---       #1726
      010004E5H   LINE      CODE     ---       #1727
LX51 LINKER/LOCATER V4.41                                                             04/26/2021  20:34:38  PAGE 24


      010004E5H   LINE      CODE     ---       #1728
      010004E7H   LINE      CODE     ---       #1730
      010004EAH   LINE      CODE     ---       #1732
      010004EDH   LINE      CODE     ---       #1733
      010004EDH   LINE      CODE     ---       #1734
      010004F6H   LINE      CODE     ---       #1735
      010004F6H   LINE      CODE     ---       #1736
      010004F8H   LINE      CODE     ---       #1737
      010004F8H   LINE      CODE     ---       #1738
      010004F8H   LINE      CODE     ---       #1739
      010004FAH   LINE      CODE     ---       #1741
      010004FDH   LINE      CODE     ---       #1742
      010004FDH   LINE      CODE     ---       #1744
      01000500H   LINE      CODE     ---       #1745
      01000500H   LINE      CODE     ---       #1747
      01000503H   LINE      CODE     ---       #1748
      01000503H   LINE      CODE     ---       #1749
      01000505H   LINE      CODE     ---       #1750
      01000507H   LINE      CODE     ---       #1752
      01000507H   LINE      CODE     ---       #1755
      0100050AH   LINE      CODE     ---       #1757
      0100050EH   LINE      CODE     ---       #1758
      01000511H   LINE      CODE     ---       #1759
      01000515H   LINE      CODE     ---       #1761
      01000517H   LINE      CODE     ---       #1763
      01000519H   LINE      CODE     ---       #1765
      01000519H   LINE      CODE     ---       #1766
      0100051BH   LINE      CODE     ---       #1777
      0100052CH   LINE      CODE     ---       #1778
      0100052CH   LINE      CODE     ---       #1779
      0100052EH   LINE      CODE     ---       #1780
      0100052EH   LINE      CODE     ---       #1782
      0100052EH   LINE      CODE     ---       #1785
      01000535H   LINE      CODE     ---       #1786
      01000535H   LINE      CODE     ---       #1787
      01000537H   LINE      CODE     ---       #1788
      0100053DH   LINE      CODE     ---       #1789
      0100053DH   LINE      CODE     ---       #1790
      0100053FH   LINE      CODE     ---       #1791
      01000541H   LINE      CODE     ---       #1792
      01000544H   LINE      CODE     ---       #1793
      01000544H   LINE      CODE     ---       #1794
      01000546H   LINE      CODE     ---       #1796
      01000546H   LINE      CODE     ---       #1797
      01000549H   LINE      CODE     ---       #1798
      01000554H   LINE      CODE     ---       #1799
      01000556H   LINE      CODE     ---       #1800
      01000556H   LINE      CODE     ---       #1804
      01000559H   LINE      CODE     ---       #1805
      01000559H   LINE      CODE     ---       #1806
      01000560H   LINE      CODE     ---       #1807
      01000562H   LINE      CODE     ---       #1808
      01000564H   LINE      CODE     ---       #1810
      01000567H   LINE      CODE     ---       #1812
      0100056AH   LINE      CODE     ---       #1813
      0100056AH   LINE      CODE     ---       #1814
      01000571H   LINE      CODE     ---       #1815
      01000573H   LINE      CODE     ---       #1816
      01000575H   LINE      CODE     ---       #1818
      01000578H   LINE      CODE     ---       #1820
      0100057FH   LINE      CODE     ---       #1821
      0100057FH   LINE      CODE     ---       #1822
      01000581H   LINE      CODE     ---       #1823
      01000584H   LINE      CODE     ---       #1824
      01000587H   LINE      CODE     ---       #1826
LX51 LINKER/LOCATER V4.41                                                             04/26/2021  20:34:38  PAGE 25


      01000587H   LINE      CODE     ---       #1828
      0100058BH   LINE      CODE     ---       #1829
      0100058FH   LINE      CODE     ---       #1831
      01000591H   LINE      CODE     ---       #1834
      01000594H   LINE      CODE     ---       #1835
      01000594H   LINE      CODE     ---       #1836
      0100059BH   LINE      CODE     ---       #1837
      0100059BH   LINE      CODE     ---       #1838
      0100059EH   LINE      CODE     ---       #1839
      010005A0H   LINE      CODE     ---       #1840
      010005A3H   LINE      CODE     ---       #1842
      010005A6H   LINE      CODE     ---       #1843
      010005A6H   LINE      CODE     ---       #1844
      010005A9H   LINE      CODE     ---       #1845
      010005A9H   LINE      CODE     ---       #1846
      010005ABH   LINE      CODE     ---       #1848
      010005ABH   LINE      CODE     ---       #1849
      010005AEH   LINE      CODE     ---       #1850
      010005B1H   LINE      CODE     ---       #1851
      010005B1H   LINE      CODE     ---       #1852
      010005B4H   LINE      CODE     ---       #1853
      010005B4H   LINE      CODE     ---       #1854
      010005BAH   LINE      CODE     ---       #1855
      010005BAH   LINE      CODE     ---       #1856
      010005BCH   LINE      CODE     ---       #1857
      010005BEH   LINE      CODE     ---       #1858
      010005BEH   LINE      CODE     ---       #1860
      010005C3H   LINE      CODE     ---       #1861
      010005CEH   LINE      CODE     ---       #1862
      010005CEH   LINE      CODE     ---       #1864
      010005D4H   LINE      CODE     ---       #1865
      010005D4H   LINE      CODE     ---       #1866
      010005D6H   LINE      CODE     ---       #1867
      010005D8H   LINE      CODE     ---       #1868
      010005D8H   LINE      CODE     ---       #1869
      010005D8H   LINE      CODE     ---       #1870
      010005DFH   LINE      CODE     ---       #1872
      010005DFH   LINE      CODE     ---       #1873
      010005E2H   LINE      CODE     ---       #1874
      010005E4H   LINE      CODE     ---       #1875
      010005E6H   LINE      CODE     ---       #1876
      010005EAH   LINE      CODE     ---       #1877
      010005F5H   LINE      CODE     ---       #1878
      010005F5H   LINE      CODE     ---       #1880
      010005FBH   LINE      CODE     ---       #1881
      010005FBH   LINE      CODE     ---       #1882
      010005FDH   LINE      CODE     ---       #1883
      010005FDH   LINE      CODE     ---       #1884
      010005FDH   LINE      CODE     ---       #1885
      010005FDH   LINE      CODE     ---       #1886
      010005FDH   LINE      CODE     ---       #1887
      01000600H   LINE      CODE     ---       #1888
      01000603H   LINE      CODE     ---       #1890
      01000603H   LINE      CODE     ---       #1891
      01000606H   LINE      CODE     ---       #1894
      01000606H   LINE      CODE     ---       #1895
      0100060DH   LINE      CODE     ---       #1896
      0100060DH   LINE      CODE     ---       #1897
      01000610H   LINE      CODE     ---       #1898
      01000612H   LINE      CODE     ---       #1899
      01000615H   LINE      CODE     ---       #1901
      01000618H   LINE      CODE     ---       #1902
      01000618H   LINE      CODE     ---       #1903
      0100061BH   LINE      CODE     ---       #1904
      0100061BH   LINE      CODE     ---       #1905
LX51 LINKER/LOCATER V4.41                                                             04/26/2021  20:34:38  PAGE 26


      0100061DH   LINE      CODE     ---       #1907
      0100061DH   LINE      CODE     ---       #1908
      01000620H   LINE      CODE     ---       #1909
      01000623H   LINE      CODE     ---       #1910
      01000623H   LINE      CODE     ---       #1911
      01000626H   LINE      CODE     ---       #1912
      01000626H   LINE      CODE     ---       #1913
      0100062CH   LINE      CODE     ---       #1914
      0100062CH   LINE      CODE     ---       #1915
      0100062EH   LINE      CODE     ---       #1916
      01000630H   LINE      CODE     ---       #1917
      01000630H   LINE      CODE     ---       #1919
      01000635H   LINE      CODE     ---       #1920
      01000640H   LINE      CODE     ---       #1921
      01000640H   LINE      CODE     ---       #1922
      01000646H   LINE      CODE     ---       #1923
      01000646H   LINE      CODE     ---       #1924
      01000648H   LINE      CODE     ---       #1925
      0100064AH   LINE      CODE     ---       #1926
      0100064AH   LINE      CODE     ---       #1927
      0100064AH   LINE      CODE     ---       #1929
      01000651H   LINE      CODE     ---       #1932
      01000651H   LINE      CODE     ---       #1934
      01000654H   LINE      CODE     ---       #1935
      01000657H   LINE      CODE     ---       #1936
      0100065CH   LINE      CODE     ---       #1937
      01000667H   LINE      CODE     ---       #1938
      01000667H   LINE      CODE     ---       #1939
      0100066AH   LINE      CODE     ---       #1940
      0100066DH   LINE      CODE     ---       #1941
      01000670H   LINE      CODE     ---       #1942
      01000683H   LINE      CODE     ---       #1943
      01000696H   LINE      CODE     ---       #1944
      01000699H   LINE      CODE     ---       #1946
      0100069FH   LINE      CODE     ---       #1947
      0100069FH   LINE      CODE     ---       #1948
      010006A1H   LINE      CODE     ---       #1949
      010006A1H   LINE      CODE     ---       #1950
      010006A1H   LINE      CODE     ---       #1951
      010006A1H   LINE      CODE     ---       #1952
      010006A1H   LINE      CODE     ---       #1953
      010006A4H   LINE      CODE     ---       #1954
      010006A6H   LINE      CODE     ---       #1955
      010006A8H   LINE      CODE     ---       #1957
      010006A8H   LINE      CODE     ---       #1958
      010006A8H   LINE      CODE     ---       #1960
      010006AAH   LINE      CODE     ---       #1961
      010006ACH   LINE      CODE     ---       #1962
      010006AFH   LINE      CODE     ---       #1963
      010006B1H   LINE      CODE     ---       #1965
      010006B1H   LINE      CODE     ---       #1966
      010006B3H   LINE      CODE     ---       #1967
      010006B3H   LINE      CODE     ---       #1969
      010006B3H   LINE      CODE     ---       #1971
      ---         BLOCKEND  ---      ---       LVL=0

      010006B4H   BLOCK     CODE     ---       LVL=0
      010006B4H   BLOCK     CODE     NEAR LAB  LVL=1
      00000003H   SYMBOL    DATA     BYTE      ADtemp
      ---         BLOCKEND  ---      ---       LVL=1
      010006B4H   LINE      CODE     ---       #1973
      010006B4H   LINE      CODE     ---       #1974
      010006B4H   LINE      CODE     ---       #1977
      010006B6H   LINE      CODE     ---       #1978
      010006B8H   LINE      CODE     ---       #1980
LX51 LINKER/LOCATER V4.41                                                             04/26/2021  20:34:38  PAGE 27


      010006C1H   LINE      CODE     ---       #1981
      010006C1H   LINE      CODE     ---       #1982
      010006C4H   LINE      CODE     ---       #1983
      010006D8H   LINE      CODE     ---       #1984
      010006DAH   LINE      CODE     ---       #1985
      010006DCH   LINE      CODE     ---       #1986
      010006DEH   LINE      CODE     ---       #1989
      010006E8H   LINE      CODE     ---       #1990
      010006EAH   LINE      CODE     ---       #1991
      010006F1H   LINE      CODE     ---       #1992
      010006F1H   LINE      CODE     ---       #1994
      010006F3H   LINE      CODE     ---       #1995
      010006F7H   LINE      CODE     ---       #1996
      010006FCH   LINE      CODE     ---       #1998
      01000702H   LINE      CODE     ---       #1999
      0100070AH   LINE      CODE     ---       #2000
      01000715H   LINE      CODE     ---       #2001
      0100071BH   LINE      CODE     ---       #2002
      0100071EH   LINE      CODE     ---       #2003
      01000723H   LINE      CODE     ---       #2006
      0100072AH   LINE      CODE     ---       #2007
      0100072DH   LINE      CODE     ---       #2023
      0100073BH   LINE      CODE     ---       #2024
      0100073BH   LINE      CODE     ---       #2026
      0100073DH   LINE      CODE     ---       #2027
      01000740H   LINE      CODE     ---       #2028
      01000746H   LINE      CODE     ---       #2029
      01000748H   LINE      CODE     ---       #2030
      0100074AH   LINE      CODE     ---       #2032
      0100074AH   LINE      CODE     ---       #2034
      0100074DH   LINE      CODE     ---       #2035
      0100074FH   LINE      CODE     ---       #2036
      01000756H   LINE      CODE     ---       #2037
      01000758H   LINE      CODE     ---       #2038
      01000758H   LINE      CODE     ---       #2040
      0100075FH   LINE      CODE     ---       #2041
      0100075FH   LINE      CODE     ---       #2043
      01000761H   LINE      CODE     ---       #2044
      01000764H   LINE      CODE     ---       #2045
      0100076BH   LINE      CODE     ---       #2046
      0100076DH   LINE      CODE     ---       #2047
      0100076FH   LINE      CODE     ---       #2049
      0100076FH   LINE      CODE     ---       #2051
      01000772H   LINE      CODE     ---       #2052
      01000774H   LINE      CODE     ---       #2053
      0100077BH   LINE      CODE     ---       #2054
      0100077DH   LINE      CODE     ---       #2055
      0100077DH   LINE      CODE     ---       #2058
      01000784H   LINE      CODE     ---       #2059
      01000784H   LINE      CODE     ---       #2061
      01000786H   LINE      CODE     ---       #2062
      01000789H   LINE      CODE     ---       #2063
      01000790H   LINE      CODE     ---       #2064
      01000792H   LINE      CODE     ---       #2065
      01000794H   LINE      CODE     ---       #2067
      01000794H   LINE      CODE     ---       #2069
      01000797H   LINE      CODE     ---       #2070
      01000799H   LINE      CODE     ---       #2071
      010007A0H   LINE      CODE     ---       #2072
      010007A2H   LINE      CODE     ---       #2073
      010007A2H   LINE      CODE     ---       #2076
      010007A9H   LINE      CODE     ---       #2077
      010007A9H   LINE      CODE     ---       #2079
      010007ABH   LINE      CODE     ---       #2080
      010007AEH   LINE      CODE     ---       #2081
LX51 LINKER/LOCATER V4.41                                                             04/26/2021  20:34:38  PAGE 28


      010007B5H   LINE      CODE     ---       #2082
      010007B7H   LINE      CODE     ---       #2083
      010007B9H   LINE      CODE     ---       #2085
      010007B9H   LINE      CODE     ---       #2087
      010007BCH   LINE      CODE     ---       #2088
      010007BEH   LINE      CODE     ---       #2089
      010007C5H   LINE      CODE     ---       #2090
      010007C7H   LINE      CODE     ---       #2091
      010007C7H   LINE      CODE     ---       #2094
      010007CEH   LINE      CODE     ---       #2095
      010007CEH   LINE      CODE     ---       #2097
      010007D0H   LINE      CODE     ---       #2098
      010007D3H   LINE      CODE     ---       #2099
      010007DAH   LINE      CODE     ---       #2100
      010007DAH   LINE      CODE     ---       #2101
      010007DCH   LINE      CODE     ---       #2102
      010007DFH   LINE      CODE     ---       #2103
      010007DFH   LINE      CODE     ---       #2104
      010007E1H   LINE      CODE     ---       #2106
      010007E1H   LINE      CODE     ---       #2108
      010007E4H   LINE      CODE     ---       #2109
      010007E6H   LINE      CODE     ---       #2110
      010007F1H   LINE      CODE     ---       #2111
      010007F3H   LINE      CODE     ---       #2112
      010007F3H   LINE      CODE     ---       #2114
      010007FAH   LINE      CODE     ---       #2115
      010007FAH   LINE      CODE     ---       #2117
      010007FCH   LINE      CODE     ---       #2118
      010007FFH   LINE      CODE     ---       #2119
      01000809H   LINE      CODE     ---       #2120
      01000809H   LINE      CODE     ---       #2121
      0100080BH   LINE      CODE     ---       #2122
      0100080EH   LINE      CODE     ---       #2123
      0100080EH   LINE      CODE     ---       #2124
      0100080FH   LINE      CODE     ---       #2126
      0100080FH   LINE      CODE     ---       #2128
      01000812H   LINE      CODE     ---       #2129
      01000814H   LINE      CODE     ---       #2130
      01000825H   LINE      CODE     ---       #2131
      01000827H   LINE      CODE     ---       #2132
      01000827H   LINE      CODE     ---       #2240
      01000827H   LINE      CODE     ---       #2241
      01000828H   LINE      CODE     ---       #2243
      01000831H   LINE      CODE     ---       #2244
      01000831H   LINE      CODE     ---       #2245
      01000834H   LINE      CODE     ---       #2246
      01000848H   LINE      CODE     ---       #2247
      0100084AH   LINE      CODE     ---       #2248
      0100084CH   LINE      CODE     ---       #2249
      0100084EH   LINE      CODE     ---       #2251
      01000857H   LINE      CODE     ---       #2252
      01000857H   LINE      CODE     ---       #2253
      0100085AH   LINE      CODE     ---       #2254
      01000860H   LINE      CODE     ---       #2255
      01000860H   LINE      CODE     ---       #2256
      01000866H   LINE      CODE     ---       #2257
      01000866H   LINE      CODE     ---       #2258
      0100086CH   LINE      CODE     ---       #2259
      0100086CH   LINE      CODE     ---       #2260
      0100086FH   LINE      CODE     ---       #2261
      0100086FH   LINE      CODE     ---       #2262
      01000873H   LINE      CODE     ---       #2263
      01000876H   LINE      CODE     ---       #2265
      0100087BH   LINE      CODE     ---       #2266
      0100087DH   LINE      CODE     ---       #2267
LX51 LINKER/LOCATER V4.41                                                             04/26/2021  20:34:38  PAGE 29


      0100087DH   LINE      CODE     ---       #2268
      0100087DH   LINE      CODE     ---       #2269
      0100087DH   LINE      CODE     ---       #2270
      0100087DH   LINE      CODE     ---       #2271
      01000881H   LINE      CODE     ---       #2272
      01000886H   LINE      CODE     ---       #2273
      01000888H   LINE      CODE     ---       #2275
      01000890H   LINE      CODE     ---       #2276
      010008A1H   LINE      CODE     ---       #2278
      010008A9H   LINE      CODE     ---       #2279
      010008BAH   LINE      CODE     ---       #2281
      010008C2H   LINE      CODE     ---       #2282
      010008D3H   LINE      CODE     ---       #2284
      010008DAH   LINE      CODE     ---       #2285
      010008EBH   LINE      CODE     ---       #2287
      010008F1H   LINE      CODE     ---       #2289
      010008F2H   LINE      CODE     ---       #2291
      010008F2H   LINE      CODE     ---       #2292
      010008F5H   LINE      CODE     ---       #2294
      010008FFH   LINE      CODE     ---       #2295
      010008FFH   LINE      CODE     ---       #2296
      01000905H   LINE      CODE     ---       #2297
      01000907H   LINE      CODE     ---       #2299
      01000909H   LINE      CODE     ---       #2300
      0100090BH   LINE      CODE     ---       #2301
      0100090EH   LINE      CODE     ---       #2302
      01000910H   LINE      CODE     ---       #2304
      01000910H   LINE      CODE     ---       #2306
      01000910H   LINE      CODE     ---       #2308
      01000911H   LINE      CODE     ---       #2310
      01000917H   LINE      CODE     ---       #2311
      01000917H   LINE      CODE     ---       #2312
      0100091AH   LINE      CODE     ---       #2313
      0100092BH   LINE      CODE     ---       #2314
      0100092DH   LINE      CODE     ---       #2315
      0100092FH   LINE      CODE     ---       #2316
      01000931H   LINE      CODE     ---       #2317
      01000933H   LINE      CODE     ---       #2318
      0100093DH   LINE      CODE     ---       #2319
      0100093FH   LINE      CODE     ---       #2320
      01000946H   LINE      CODE     ---       #2321
      01000946H   LINE      CODE     ---       #2323
      01000949H   LINE      CODE     ---       #2324
      01000958H   LINE      CODE     ---       #2325
      0100095DH   LINE      CODE     ---       #2326
      0100095DH   LINE      CODE     ---       #2328
      0100095EH   LINE      CODE     ---       #2330
      01000964H   LINE      CODE     ---       #2331
      01000964H   LINE      CODE     ---       #2332
      01000967H   LINE      CODE     ---       #2333
      0100097BH   LINE      CODE     ---       #2334
      0100097DH   LINE      CODE     ---       #2335
      0100097FH   LINE      CODE     ---       #2336
      01000981H   LINE      CODE     ---       #2339
      0100098DH   LINE      CODE     ---       #2340
      0100098FH   LINE      CODE     ---       #2341
      01000993H   LINE      CODE     ---       #2342
      01000993H   LINE      CODE     ---       #2344
      01000995H   LINE      CODE     ---       #2345
      01000999H   LINE      CODE     ---       #2346
      0100099EH   LINE      CODE     ---       #2347
      0100099EH   LINE      CODE     ---       #2349
      0100099EH   LINE      CODE     ---       #2351
      ---         BLOCKEND  ---      ---       LVL=0

LX51 LINKER/LOCATER V4.41                                                             04/26/2021  20:34:38  PAGE 30


      01000CA8H   BLOCK     CODE     ---       LVL=0
      01000CA8H   LINE      CODE     ---       #2356
      01000CA8H   LINE      CODE     ---       #2357
      01000CA8H   LINE      CODE     ---       #2358
      01000CABH   LINE      CODE     ---       #2359
      01000CABH   LINE      CODE     ---       #2360
      01000CABH   LINE      CODE     ---       #2362
      01000CAEH   LINE      CODE     ---       #2363
      01000CB1H   LINE      CODE     ---       #2364
      01000CB4H   LINE      CODE     ---       #2365
      01000CC7H   LINE      CODE     ---       #2366
      01000CDAH   LINE      CODE     ---       #2367
      01000CDDH   LINE      CODE     ---       #2369
      01000CE0H   LINE      CODE     ---       #2370
      01000CE3H   LINE      CODE     ---       #2371
      01000CE6H   LINE      CODE     ---       #2374
      01000CE9H   LINE      CODE     ---       #2375
      01000CECH   LINE      CODE     ---       #2376
      01000CEFH   LINE      CODE     ---       #2377
      01000CF2H   LINE      CODE     ---       #2379
      ---         BLOCKEND  ---      ---       LVL=0

      01000003H   BLOCK     CODE     ---       LVL=0
      01000003H   LINE      CODE     ---       #2383
      01000005H   LINE      CODE     ---       #2385
      0100000BH   LINE      CODE     ---       #2386
      0100000BH   LINE      CODE     ---       #2387
      0100000EH   LINE      CODE     ---       #2388
      01000010H   LINE      CODE     ---       #2389
      01000012H   LINE      CODE     ---       #2390
      01000014H   LINE      CODE     ---       #2391
      01000017H   LINE      CODE     ---       #2392
      0100001AH   LINE      CODE     ---       #2393
      0100001CH   LINE      CODE     ---       #2394
      0100001EH   LINE      CODE     ---       #2395
      01000020H   LINE      CODE     ---       #2396
      01000022H   LINE      CODE     ---       #2397
      01000024H   LINE      CODE     ---       #2398
      01000026H   LINE      CODE     ---       #2399
      01000028H   LINE      CODE     ---       #2402
      0100002AH   LINE      CODE     ---       #2404
      0100002CH   LINE      CODE     ---       #2405
      0100002CH   LINE      CODE     ---       #2406
      ---         BLOCKEND  ---      ---       LVL=0

      ---         MODULE    ---      ---       ?C_INIT
      01000C0EH   PUBLIC    CODE     ---       ?C_START

      ---         MODULE    ---      ---       ?C?UIDIV
      01000C53H   PUBLIC    CODE     ---       ?C?UIDIV

Program Size: data=104.4 xdata=0 const=0 code=3293
LX51 RUN COMPLETE.  0 WARNING(S),  0 ERROR(S)
